Component: ARM Compiler 5.06 update 4 (build 422) Tool: armlink [4d35d2]

==============================================================================

Section Cross References

    main.o(.text) refers to delay.o(.text) for delay_init
    main.o(.text) refers to misc.o(.text) for NVIC_PriorityGroupConfig
    main.o(.text) refers to usart.o(.text) for uart_init
    main.o(.text) refers to timer.o(.text) for TIM3_Int_Init
    main.o(.text) refers to led.o(.text) for LED_Init
    main.o(.text) refers to beep.o(.text) for BEEP_Init
    main.o(.text) refers to relay.o(.text) for RELAY_Init
    main.o(.text) refers to rc522_config.o(.text) for RC522_Init
    main.o(.text) refers to 24cxx.o(.text) for AT24CXX_Init
    main.o(.text) refers to 24cxx_2.o(.text) for AT24CXX_2_Init
    main.o(.text) refers to ds1302.o(.text) for DS1302_Init
    main.o(.text) refers to w25qxx.o(.text) for SPI_Flash_Init
    main.o(.text) refers to rs485.o(.text) for RS485_Init
    main.o(.text) refers to wg1.o(.text) for EXTIX_Init_WG1
    main.o(.text) refers to wg2.o(.text) for EXTIX_Init_WG2
    main.o(.text) refers to w5500_config.o(.text) for W5500_SYSTEM_Init
    main.o(.text) refers to sysrest.o(.text) for SYSREST_KEY_Init
    main.o(.text) refers to ec20.o(.text) for EC20_REST_Init
    main.o(.text) refers to tm1650.o(.text) for TM16_INIT
    main.o(.text) refers to speak.o(.text) for SPEAK_USART_TX_init
    main.o(.text) refers to lcd_dis.o(.text) for LCD_Config
    main.o(.text) refers to rj45cmd.o(.text) for InitTcpClient
    main.o(.text) refers to sysvar.o(.text) for InitOutput
    main.o(.text) refers to syscomm.o(.text) for InitSysvar
    main.o(.text) refers to record.o(.text) for InitRecord
    main.o(.text) refers to mach.o(.text) for InitMachno
    main.o(.text) refers to pass.o(.text) for InitPassword
    main.o(.text) refers to name.o(.text) for InitName
    main.o(.text) refers to default.o(.text) for Initnewdate_addr
    main.o(.text) refers to comcmd.o(.text) for InitCombuff
    main.o(.text) refers to interval.o(.text) for InitTime_Interval_Detection
    main.o(.text) refers to heartbeat.o(.text) for Init_Heartbeat
    main.o(.text) refers to ec20fun.o(.text) for Init_EC20_Remote_IP
    main.o(.text) refers to volume.o(.text) for InitVolume
    main.o(.text) refers to consum_config.o(.text) for InitFixed_consumption_Money
    main.o(.text) refers to system_stm32f10x.o(.text) for SystemInit
    main.o(.text) refers to wdg.o(.text) for IWDG_Init
    main.o(.text) refers to menu.o(.text) for fun5
    main.o(.text) refers to iap_updata.o(.text) for Clear_IAP_OK_System_Boot
    main.o(.text) refers to cardprocess.o(.text) for CheckCard
    main.o(.text) refers to upload.o(.text) for ProcessReal_time_upload
    main.o(.text) refers to sysvar.o(.data) for output_time
    main.o(.text) refers to interval.o(.data) for bChannel
    main.o(.text) refers to record.o(.data) for uploadflash_cycle
    main.o(.text) refers to heartbeat.o(.data) for kt_beat_info
    main.o(.text) refers to cardprocess.o(.data) for Enable_Pay_Card
    system_stm32f10x.o(.text) refers to system_stm32f10x.o(.data) for SystemCoreClock
    led.o(.text) refers to stm32f10x_rcc.o(.text) for RCC_APB2PeriphClockCmd
    led.o(.text) refers to stm32f10x_gpio.o(.text) for GPIO_Init
    key.o(.text) refers to stm32f10x_rcc.o(.text) for RCC_APB2PeriphClockCmd
    key.o(.text) refers to stm32f10x_gpio.o(.text) for GPIO_Init
    key.o(.text) refers to key.o(.data) for count
    beep.o(.text) refers to stm32f10x_rcc.o(.text) for RCC_APB2PeriphClockCmd
    beep.o(.text) refers to stm32f10x_gpio.o(.text) for GPIO_Init
    timer.o(.text) refers to stm32f10x_rcc.o(.text) for RCC_APB1PeriphClockCmd
    timer.o(.text) refers to stm32f10x_tim.o(.text) for TIM_TimeBaseInit
    timer.o(.text) refers to misc.o(.text) for NVIC_Init
    timer.o(.text) refers to sysvar.o(.data) for showStandby
    timer.o(.text) refers to cardprocess.o(.data) for idcycleflag
    timer.o(.text) refers to ec20.o(.data) for g_u16OverTimeCnt
    timer.o(.text) refers to upload.o(.data) for upOverTimeCnt
    timer.o(.text) refers to timer.o(.data) for timerdelay
    timer.o(.text) refers to record.o(.data) for rdtemporary_count
    timer.o(.text) refers to heartbeat.o(.data) for kt_beat_info
    myiic.o(.text) refers to stm32f10x_rcc.o(.text) for RCC_APB2PeriphClockCmd
    myiic.o(.text) refers to stm32f10x_gpio.o(.text) for GPIO_Init
    myiic.o(.text) refers to delay.o(.text) for delay_us
    relay.o(.text) refers to stm32f10x_rcc.o(.text) for RCC_APB2PeriphClockCmd
    relay.o(.text) refers to stm32f10x_gpio.o(.text) for GPIO_Init
    w25qxx.o(.text) refers to spi.o(.text) for SPI1_ReadWriteByte
    w25qxx.o(.text) refers to stm32f10x_rcc.o(.text) for RCC_APB2PeriphClockCmd
    w25qxx.o(.text) refers to stm32f10x_gpio.o(.text) for GPIO_Init
    w25qxx.o(.text) refers to delay.o(.text) for delay_us
    w25qxx.o(.text) refers to w25qxx.o(.bss) for SPI_FLASH_BUF
    spi.o(.text) refers to stm32f10x_spi.o(.text) for SPI_I2S_GetFlagStatus
    spi.o(.text) refers to stm32f10x_rcc.o(.text) for RCC_APB2PeriphClockCmd
    spi.o(.text) refers to stm32f10x_gpio.o(.text) for GPIO_Init
    spi.o(.text) refers to spi.o(.bss) for SPI_InitStructure
    wdg.o(.text) refers to stm32f10x_iwdg.o(.text) for IWDG_WriteAccessCmd
    optocoupler.o(.text) refers to stm32f10x_rcc.o(.text) for RCC_APB2PeriphClockCmd
    optocoupler.o(.text) refers to stm32f10x_gpio.o(.text) for GPIO_Init
    sysrest.o(.text) refers to stm32f10x_rcc.o(.text) for RCC_APB2PeriphClockCmd
    sysrest.o(.text) refers to stm32f10x_gpio.o(.text) for GPIO_Init
    24cxx.o(.text) refers to myiic.o(.text) for IIC_Init
    24cxx.o(.text) refers to delay.o(.text) for delay_ms
    rs485.o(.text) refers to stm32f10x_rcc.o(.text) for RCC_APB2PeriphClockCmd
    rs485.o(.text) refers to stm32f10x_gpio.o(.text) for GPIO_Init
    rs485.o(.text) refers to stm32f10x_usart.o(.text) for USART_SendData
    wg1.o(.text) refers to stm32f10x_rcc.o(.text) for RCC_APB2PeriphClockCmd
    wg1.o(.text) refers to stm32f10x_gpio.o(.text) for GPIO_EXTILineConfig
    wg1.o(.text) refers to stm32f10x_exti.o(.text) for EXTI_Init
    wg1.o(.text) refers to misc.o(.text) for NVIC_Init
    wg1.o(.text) refers to wg1.o(.data) for bwg1
    wg1.o(.text) refers to wg1.o(.bss) for wg1cardno
    wg1.o(.text) refers to sysvar.o(.data) for idbuff
    wg2.o(.text) refers to stm32f10x_rcc.o(.text) for RCC_APB2PeriphClockCmd
    wg2.o(.text) refers to stm32f10x_gpio.o(.text) for GPIO_EXTILineConfig
    wg2.o(.text) refers to stm32f10x_exti.o(.text) for EXTI_Init
    wg2.o(.text) refers to misc.o(.text) for NVIC_Init
    wg2.o(.text) refers to wg2.o(.data) for bwg2
    wg2.o(.text) refers to wg2.o(.bss) for wg2cardno
    wg2.o(.text) refers to sysvar.o(.data) for idbuff
    24cxx_2.o(.text) refers to myiic_2.o(.text) for IIC_2_Init
    24cxx_2.o(.text) refers to delay.o(.text) for delay_ms
    myiic_2.o(.text) refers to stm32f10x_rcc.o(.text) for RCC_APB2PeriphClockCmd
    myiic_2.o(.text) refers to stm32f10x_gpio.o(.text) for GPIO_Init
    myiic_2.o(.text) refers to delay.o(.text) for delay_us
    ec20.o(.text) refers to stm32f10x_rcc.o(.text) for RCC_APB2PeriphClockCmd
    ec20.o(.text) refers to stm32f10x_gpio.o(.text) for GPIO_Init
    ec20.o(.text) refers to stm32f10x_usart.o(.text) for USART_SendData
    ec20.o(.text) refers to rt_memclr.o(.text) for __aeabi_memclr
    ec20.o(.text) refers to delay.o(.text) for delay_ms
    ec20.o(.text) refers to ec20.o(.bss) for RxDataBuff
    ec20.o(.text) refers to comcmd.o(.data) for endcount_4g
    ec20.o(.text) refers to ec20.o(.data) for g_u8RxIndexW
    ec20.o(.text) refers to usart.o(.data) for USART1_RX_CRLF
    ec20.o(.text) refers to ec20fun.o(.bss) for ec20_device_info
    ec20.o(.text) refers to heartbeat.o(.data) for kt_beat_info
    ec20.o(.text) refers to ec20.o(.constdata) for AT_QPOWD
    ec20.o(.text) refers to rt_memclr_w.o(.text) for __aeabi_memclr4
    ec20.o(.text) refers to rt_memcpy_v6.o(.text) for __aeabi_memcpy
    ec20.o(.text) refers to comcmd.o(.text) for Send_Power_Signal
    ec20.o(.text) refers to sysvar.o(.data) for Standbytime
    ec20.o(.text) refers to w5500.o(.text) for Write_SOCK_Data_Buffer
    volume.o(.text) refers to 24cxx.o(.text) for AT24CXX_Read
    volume.o(.text) refers to syscomm.o(.text) for getDectoBCD
    volume.o(.text) refers to speak.o(.text) for SYN6288_Send
    volume.o(.text) refers to volume.o(.constdata) for .constdata
    stmflash.o(.text) refers to stm32f10x_flash.o(.text) for FLASH_ProgramHalfWord
    stmflash.o(.text) refers to stmflash.o(.bss) for STMFLASH_BUF
    delay.o(.text) refers to misc.o(.text) for SysTick_CLKSourceConfig
    delay.o(.text) refers to system_stm32f10x.o(.data) for SystemCoreClock
    delay.o(.text) refers to delay.o(.data) for fac_us
    usart.o(.text) refers (Special) to use_no_semi_2.o(.text) for __use_no_semihosting
    usart.o(.text) refers to stm32f10x_rcc.o(.text) for RCC_APB2PeriphClockCmd
    usart.o(.text) refers to stm32f10x_gpio.o(.text) for GPIO_Init
    usart.o(.text) refers to misc.o(.text) for NVIC_Init
    usart.o(.text) refers to stm32f10x_usart.o(.text) for USART_Init
    usart.o(.text) refers to ec20.o(.text) for InitEC20Combuff
    usart.o(.text) refers to comcmd.o(.text) for InitCombuff
    usart.o(.text) refers to qr_code.o(.text) for InitQRCombuff
    usart.o(.text) refers to ec20.o(.data) for g_u8RxIndexW
    usart.o(.text) refers to ec20.o(.bss) for RxDataBuff
    usart.o(.text) refers to comcmd.o(.data) for endcount_4g
    usart.o(.text) refers to usart.o(.data) for k
    usart.o(.text) refers to comcmd.o(.bss) for combuff
    usart.o(.text) refers to qr_code.o(.data) for QR_u8RxIndexW
    usart.o(.text) refers to qr_code.o(.bss) for QR_RxDataBuff
    usart.o(.data) refers (Special) to use_no_semi_2.o(.text) for __use_no_semihosting
    startup_stm32f10x_hd.o(STACK) refers (Special) to heapauxi.o(.text) for __use_two_region_memory
    startup_stm32f10x_hd.o(HEAP) refers (Special) to heapauxi.o(.text) for __use_two_region_memory
    startup_stm32f10x_hd.o(RESET) refers (Special) to heapauxi.o(.text) for __use_two_region_memory
    startup_stm32f10x_hd.o(RESET) refers to startup_stm32f10x_hd.o(STACK) for __initial_sp
    startup_stm32f10x_hd.o(RESET) refers to startup_stm32f10x_hd.o(.text) for Reset_Handler
    startup_stm32f10x_hd.o(RESET) refers to stm32f10x_it.o(.text) for NMI_Handler
    startup_stm32f10x_hd.o(RESET) refers to wg1.o(.text) for EXTI0_IRQHandler
    startup_stm32f10x_hd.o(RESET) refers to wg2.o(.text) for EXTI2_IRQHandler
    startup_stm32f10x_hd.o(RESET) refers to w5500.o(.text) for EXTI9_5_IRQHandler
    startup_stm32f10x_hd.o(RESET) refers to w5500_config.o(.text) for TIM2_IRQHandler
    startup_stm32f10x_hd.o(RESET) refers to timer.o(.text) for TIM3_IRQHandler
    startup_stm32f10x_hd.o(RESET) refers to usart.o(.text) for USART1_IRQHandler
    startup_stm32f10x_hd.o(.text) refers (Special) to heapauxi.o(.text) for __use_two_region_memory
    startup_stm32f10x_hd.o(.text) refers to system_stm32f10x.o(.text) for SystemInit
    startup_stm32f10x_hd.o(.text) refers to __main.o(!!!main) for __main
    startup_stm32f10x_hd.o(.text) refers to startup_stm32f10x_hd.o(HEAP) for Heap_Mem
    startup_stm32f10x_hd.o(.text) refers to startup_stm32f10x_hd.o(STACK) for Stack_Mem
    stm32f10x_gpio.o(.text) refers to stm32f10x_rcc.o(.text) for RCC_APB2PeriphResetCmd
    stm32f10x_rcc.o(.text) refers to stm32f10x_rcc.o(.data) for APBAHBPrescTable
    stm32f10x_usart.o(.text) refers to stm32f10x_rcc.o(.text) for RCC_APB2PeriphResetCmd
    stm32f10x_tim.o(.text) refers to stm32f10x_rcc.o(.text) for RCC_APB2PeriphResetCmd
    stm32f10x_adc.o(.text) refers to stm32f10x_rcc.o(.text) for RCC_APB2PeriphResetCmd
    stm32f10x_bkp.o(.text) refers to stm32f10x_rcc.o(.text) for RCC_BackupResetCmd
    stm32f10x_cec.o(.text) refers to stm32f10x_rcc.o(.text) for RCC_APB1PeriphResetCmd
    stm32f10x_pwr.o(.text) refers to stm32f10x_rcc.o(.text) for RCC_APB1PeriphResetCmd
    stm32f10x_spi.o(.text) refers to stm32f10x_rcc.o(.text) for RCC_APB2PeriphResetCmd
    stm32f10x_wwdg.o(.text) refers to stm32f10x_rcc.o(.text) for RCC_APB1PeriphResetCmd
    rc522_config.o(.text) refers to stm32f10x_rcc.o(.text) for RCC_APB2PeriphClockCmd
    rc522_config.o(.text) refers to stm32f10x_gpio.o(.text) for GPIO_Init
    rc522_config.o(.text) refers to delay.o(.text) for delay_ms
    rc522_config.o(.text) refers to rc522_function.o(.text) for PcdReset
    rc522_config.o(.text) refers to name.o(.text) for FindCardno
    rc522_config.o(.text) refers to sysvar.o(.data) for showStandby
    rc522_function.o(.text) refers to stm32f10x_gpio.o(.text) for GPIO_SetBits
    rc522_function.o(.text) refers to delay.o(.text) for delay_us
    ds1302.o(.text) refers to stm32f10x_rcc.o(.text) for RCC_APB2PeriphClockCmd
    ds1302.o(.text) refers to stm32f10x_gpio.o(.text) for GPIO_Init
    ds1302.o(.text) refers to delay.o(.text) for delay_us
    ds1302.o(.text) refers to ds1302.o(.data) for time_buf
    sysvar.o(.text) refers to menu.o(.text) for fun5
    sysvar.o(.text) refers to keyfun.o(.text) for GetWorkStatus
    sysvar.o(.text) refers to lcd_config.o(.text) for LCD_Standby
    sysvar.o(.text) refers to lcd12864_config.o(.text) for Clear_Standby_Display_Time
    sysvar.o(.text) refers to delay.o(.text) for delay_ms
    sysvar.o(.text) refers to default.o(.text) for LoadDefaultValue
    sysvar.o(.text) refers to syscomm.o(.text) for turn_4_data
    sysvar.o(.text) refers to rs485.o(.text) for RS485_Send_Data
    sysvar.o(.text) refers to sysvar.o(.data) for Standbytime
    sysvar.o(.text) refers to menu.o(.data) for Menu_password_falg
    keyfun.o(.text) refers to speak.o(.text) for SYN6288_Send
    keyfun.o(.text) refers to syscomm.o(.text) for MyStrCPY
    keyfun.o(.text) refers to lcd12864_config.o(.text) for Clear_Standby_Display
    keyfun.o(.text) refers to keyfun.o(.data) for menu_keyidx
    keyfun.o(.text) refers to keyfun.o(.bss) for menu_keybuff
    keyfun.o(.text) refers to sysvar.o(.data) for sys_status
    keyfun.o(.text) refers to lcd12864_config.o(.data) for Show_moneybuf
    syscomm.o(.text) refers to delay.o(.text) for delay_ms
    syscomm.o(.text) refers to toupper.o(.text) for toupper
    syscomm.o(.text) refers to 24cxx.o(.text) for AT24CXX_Read
    syscomm.o(.text) refers to sysvar.o(.bss) for sysvar
    syscomm.o(.text) refers to sysvar.o(.data) for repea_time
    syscomm.o(.text) refers to consum_config.o(.data) for Machine_category
    comcmd.o(.text) refers to rs485.o(.text) for RS485_Send_Data
    comcmd.o(.text) refers to ec20.o(.text) for EC20_SendString
    comcmd.o(.text) refers to w5500.o(.text) for Write_SOCK_Data_Buffer
    comcmd.o(.text) refers to syscomm.o(.text) for LED1_fun
    comcmd.o(.text) refers to mach.o(.text) for SaveMachno
    comcmd.o(.text) refers to ds1302.o(.text) for SetNowTime
    comcmd.o(.text) refers to pass.o(.text) for SetPassword
    comcmd.o(.text) refers to 24cxx.o(.text) for AT24CXX_Read
    comcmd.o(.text) refers to default.o(.text) for LoadDefaultValue
    comcmd.o(.text) refers to delay.o(.text) for delay_ms
    comcmd.o(.text) refers to rj45cmd.o(.text) for reboot
    comcmd.o(.text) refers to sysvar.o(.text) for Get_ChipInfo
    comcmd.o(.text) refers to rt_memclr_w.o(.text) for __aeabi_memclr4
    comcmd.o(.text) refers to comcmd.o(.bss) for combuff
    comcmd.o(.text) refers to ec20.o(.bss) for RxDataBuff
    comcmd.o(.text) refers to rj45cmd.o(.bss) for TcpServer_databuff
    comcmd.o(.text) refers to comcmd.o(.data) for Retainbitbuf
    comcmd.o(.text) refers to mach.o(.data) for machno
    comcmd.o(.text) refers to comcmd.o(.constdata) for .constdata
    comcmd.o(.text) refers to sysvar.o(.data) for repea_time
    comcmd.o(.text) refers to w5500.o(.data) for Phy_Addr
    comcmd.o(.text) refers to ec20fun.o(.text) for Init_EC20_Remote_IP
    comcmd.o(.text) refers to speak.o(.text) for SYN6288_Send
    comcmd.o(.text) refers to lcd_dis.o(.text) for ClrScreen
    comcmd.o(.text) refers to wdg.o(.text) for IWDG_Feed
    comcmd.o(.text) refers to w25qxx.o(.text) for W25X_Read_Page
    comcmd.o(.text) refers to record.o(.text) for Del_UpdataRecord
    comcmd.o(.text) refers to volume.o(.text) for InitVolume
    comcmd.o(.text) refers to heartbeat.o(.text) for Heartbeat_Send
    comcmd.o(.text) refers to rt_memcpy_w.o(.text) for __aeabi_memcpy4
    comcmd.o(.text) refers to 24cxx_2.o(.text) for AT24CXX_2_Read
    comcmd.o(.text) refers to ec20fun.o(.bss) for ec20_remoteipbuf
    comcmd.o(.text) refers to upload.o(.data) for updatareturnfalg
    comcmd.o(.text) refers to upload.o(.bss) for Server_Returndata
    comcmd.o(.text) refers to record.o(.data) for rdrealtime_up_count
    comcmd.o(.text) refers to name.o(.text) for GetGroupCount
    comcmd.o(.text) refers to blackname.o(.text) for Back_GetGroupCount
    comcmd.o(.text) refers to name.o(.data) for curgroup
    comcmd.o(.text) refers to blackname.o(.data) for back_curgroup
    comcmd.o(.text) refers to consum_config.o(.text) for DeleteConsumption_All_Money
    comcmd.o(.text) refers to heartbeat.o(.data) for kt_beat_info
    comcmd.o(.text) refers to interval.o(.text) for InitTime_Interval_Detection
    comcmd.o(.text) refers to lcd12864_config.o(.text) for Clear_Standby_Display_Time
    comcmd.o(.text) refers to interval.o(.bss) for Permission_Period
    comcmd.o(.text) refers to consum_config.o(.data) for Sub_Maximum_Limitbuf
    comcmd.o(.text) refers to consum_config.o(.bss) for Fixed_consum_Timerbuf
    comcmd.o(.text) refers to lcd_config.o(.data) for num_lcd
    comcmd.o(.text) refers to ec20.o(.data) for EC20GPSLEN
    comcmd.o(.text) refers to rt_memcpy_v6.o(.text) for __aeabi_memcpy
    comcmd.o(.text) refers to iap_updata.o(.text) for False_Random_number
    comcmd.o(.text) refers to stmflash.o(.text) for STMFLASH_Read
    comcmd.o(.text) refers to rt_memclr.o(.text) for __aeabi_memclr
    comcmd.o(.text) refers to iap_updata.o(.data) for iapreceivepackcnt
    name.o(.text) refers to 24cxx_2.o(.text) for AT24CXX_2_Write
    name.o(.text) refers to syscomm.o(.text) for GetSum
    name.o(.text) refers to 24cxx.o(.text) for AT24CXX_Read
    name.o(.text) refers to name.o(.data) for groupcount
    name.o(.text) refers to sysvar.o(.data) for idbuff
    cardprocess.o(.text) refers to rt_memcpy_w.o(.text) for __aeabi_memcpy4
    cardprocess.o(.text) refers to syscomm.o(.text) for LED2_fun
    cardprocess.o(.text) refers to keyfun.o(.text) for GetWorkStatus
    cardprocess.o(.text) refers to w5500.o(.text) for Write_SOCK_Data_Buffer
    cardprocess.o(.text) refers to ec20.o(.text) for EC20_SendString
    cardprocess.o(.text) refers to rt_memclr.o(.text) for __aeabi_memclr
    cardprocess.o(.text) refers to sysvar.o(.text) for BeginOutput1
    cardprocess.o(.text) refers to ds1302.o(.text) for DS1302_Read_Time
    cardprocess.o(.text) refers to record.o(.text) for Arrange_Record
    cardprocess.o(.text) refers to pass.o(.text) for GetPassword
    cardprocess.o(.text) refers to rc522_function.o(.text) for PcdAuthState
    cardprocess.o(.text) refers to wg1.o(.text) for ProcessWG1
    cardprocess.o(.text) refers to wg2.o(.text) for ProcessWG2
    cardprocess.o(.text) refers to qr_code.o(.text) for ProcessQR_Commu
    cardprocess.o(.text) refers to name.o(.text) for FindCardno
    cardprocess.o(.text) refers to interval.o(.text) for HolidayTime_Interval_Detection
    cardprocess.o(.text) refers to blackname.o(.text) for Back_FindCardno
    cardprocess.o(.text) refers to cardprocess.o(.data) for Pay_Carderr_Code
    cardprocess.o(.text) refers to sysvar.o(.data) for idbuff
    cardprocess.o(.text) refers to consum_config.o(.data) for Machine_category
    cardprocess.o(.text) refers to mach.o(.data) for machno
    cardprocess.o(.text) refers to comcmd.o(.bss) for communication_data
    cardprocess.o(.text) refers to record.o(.data) for maxrecordcount_err
    cardprocess.o(.text) refers to qr_code.o(.data) for oldQRID
    cardprocess.o(.text) refers to upload.o(.data) for updatareturnfalg
    cardprocess.o(.text) refers to cardprocess.o(.bss) for blk0
    cardprocess.o(.text) refers to default.o(.data) for isection
    cardprocess.o(.text) refers to name.o(.data) for bfindcard
    cardprocess.o(.text) refers to interval.o(.data) for bHoliday
    cardprocess.o(.text) refers to blackname.o(.data) for back_bfindcard
    cardprocess.o(.text) refers to cardrw.o(.text) for AnalyzeSectionData
    cardprocess.o(.text) refers to sysvar.o(.bss) for extvar
    pass.o(.text) refers to 24cxx.o(.text) for AT24CXX_ReadOneByte
    pass.o(.text) refers to syscomm.o(.text) for MyStrCPY
    pass.o(.text) refers to default.o(.data) for isection
    default.o(.text) refers to rt_memcpy_w.o(.text) for __aeabi_memcpy4
    default.o(.text) refers to 24cxx.o(.text) for AT24CXX_Write
    default.o(.text) refers to pass.o(.text) for SetPassword
    default.o(.text) refers to rj45cmd.o(.text) for reboot
    default.o(.text) refers to default.o(.data) for DEF_PASS
    record.o(.text) refers to 24cxx.o(.text) for AT24CXX_Read
    record.o(.text) refers to w25qxx.o(.text) for SPI_Flash_Erase_Sector
    record.o(.text) refers to syscomm.o(.text) for MyStrCPY
    record.o(.text) refers to keyfun.o(.text) for GetWorkStatus
    record.o(.text) refers to rt_memclr_w.o(.text) for __aeabi_memclr4
    record.o(.text) refers to record.o(.data) for recordcount
    record.o(.text) refers to sysvar.o(.data) for refund_the_balance
    record.o(.text) refers to consum_config.o(.data) for RefundMoneybuf
    record.o(.text) refers to keyfun.o(.data) for keymoneybuff
    record.o(.text) refers to consum_config.o(.bss) for Fixed_consum_Moneybuf
    record.o(.text) refers to cardprocess.o(.data) for Pay_Carderr_Code
    record.o(.text) refers to mach.o(.data) for machno
    record.o(.text) refers to record.o(.bss) for recorddata
    record.o(.text) refers to ds1302.o(.data) for time_buf
    record.o(.text) refers to comcmd.o(.bss) for communication_data
    record.o(.text) refers to consum_config.o(.text) for SaveConsumption_All_Money
    record.o(.text) refers to rt_memcpy_w.o(.text) for __aeabi_memcpy4
    record.o(.text) refers to w5500.o(.text) for Write_SOCK_Data_Buffer
    record.o(.text) refers to ec20.o(.text) for EC20_SendString
    record.o(.text) refers to upload.o(.data) for updatareturnfalg
    record.o(.text) refers to qr_code.o(.data) for Asynchronous_QR_falg
    record.o(.text) refers to ec20fun.o(.bss) for ec20_device_info
    mach.o(.text) refers to 24cxx.o(.text) for AT24CXX_Read
    mach.o(.text) refers to syscomm.o(.text) for HexToStr
    mach.o(.text) refers to mach.o(.data) for machno
    wifi.o(.text) refers to rt_memcpy_w.o(.text) for __aeabi_memcpy4
    wifi.o(.text) refers to syscomm.o(.text) for HexToStr
    wifi.o(.text) refers to comcmd.o(.text) for InitCombuff
    wifi.o(.text) refers to wifi.o(.constdata) for .constdata
    wifi.o(.text) refers to wifi.o(.data) for wificycle
    wifi.o(.text) refers to mach.o(.data) for machno
    wifi.o(.text) refers to sysvar.o(.data) for idbuff
    wifi.o(.text) refers to cardrw.o(.data) for Current_time_value
    cardrw.o(.text) refers to syscomm.o(.text) for HextoBCD
    cardrw.o(.text) refers to rc522_function.o(.text) for PcdAuthState
    cardrw.o(.text) refers to ds1302.o(.data) for time_buf
    cardrw.o(.text) refers to cardrw.o(.data) for TIME_time_slot
    cardrw.o(.text) refers to sysvar.o(.data) for repea_time
    cardrw.o(.text) refers to cardprocess.o(.bss) for blk1
    cardrw.o(.text) refers to default.o(.data) for isection
    cardrw.o(.text) refers to cardprocess.o(.data) for cardPW
    blackname.o(.text) refers to 24cxx.o(.text) for AT24CXX_Write
    blackname.o(.text) refers to syscomm.o(.text) for GetSum
    blackname.o(.text) refers to blackname.o(.data) for back_groupcount
    blackname.o(.text) refers to sysvar.o(.data) for idbuff
    interval.o(.text) refers to syscomm.o(.text) for MyStrCMP
    interval.o(.text) refers to 24cxx.o(.text) for AT24CXX_Read
    interval.o(.text) refers to delay.o(.text) for delay_ms
    interval.o(.text) refers to interval.o(.data) for btimeseg
    interval.o(.text) refers to name.o(.data) for Permission_Periodbuff
    interval.o(.text) refers to interval.o(.bss) for Permission_Period
    interval.o(.text) refers to ds1302.o(.data) for time_buf
    ec20fun.o(.text) refers to strstr.o(.text) for strstr
    ec20fun.o(.text) refers to syscomm.o(.text) for Beep
    ec20fun.o(.text) refers to ec20.o(.text) for InitEC20Combuff
    ec20fun.o(.text) refers to rt_memcpy_v6.o(.text) for __aeabi_memcpy
    ec20fun.o(.text) refers to comcmd.o(.text) for Process_com_data
    ec20fun.o(.text) refers to 24cxx.o(.text) for AT24CXX_Read
    ec20fun.o(.text) refers to default.o(.text) for LoadnEC20DefaultValue
    ec20fun.o(.text) refers to ec20.o(.bss) for RxDataBuff
    ec20fun.o(.text) refers to usart.o(.data) for USART1_RX_CRLF
    ec20fun.o(.text) refers to ec20fun.o(.data) for redata_4g
    ec20fun.o(.text) refers to ec20fun.o(.bss) for ec20_device_info
    ec20fun.o(.text) refers to comcmd.o(.data) for endcount_4g
    ec20fun.o(.text) refers to ec20.o(.data) for g_u8RxIndexW
    ec20fun.o(.text) refers to mach.o(.data) for machno
    ec20fun.o(.text) refers to heartbeat.o(.data) for kt_beat_info
    ec20fun.o(.text) refers to comcmd.o(.bss) for communication_data
    ec20fun.o(.text) refers to sysvar.o(.data) for inPCOM
    qr_code.o(.text) refers to stm32f10x_usart.o(.text) for USART_SendData
    qr_code.o(.text) refers to syscomm.o(.text) for StrToHex
    qr_code.o(.text) refers to strstr.o(.text) for strstr
    qr_code.o(.text) refers to speak.o(.text) for SYN6288_Send
    qr_code.o(.text) refers to rt_memclr.o(.text) for __aeabi_memclr
    qr_code.o(.text) refers to rt_memcpy_v6.o(.text) for __aeabi_memcpy
    qr_code.o(.text) refers to qr_code.o(.bss) for QR_RxDataBuff
    qr_code.o(.text) refers to qr_code.o(.data) for QR_u8RxIndexW
    qr_code.o(.text) refers to sysvar.o(.data) for idbuff
    qr_code.o(.text) refers to ds1302.o(.data) for time_buf
    speak.o(.text) refers to stm32f10x_gpio.o(.text) for GPIO_ResetBits
    speak.o(.text) refers to stm32f10x_rcc.o(.text) for RCC_APB2PeriphClockCmd
    speak.o(.text) refers to delay.o(.text) for delay_us
    speak.o(.text) refers to rt_memclr_w.o(.text) for __aeabi_memclr4
    speak.o(.text) refers to rt_memcpy_v6.o(.text) for __aeabi_memcpy
    speak.o(.text) refers to syscomm.o(.text) for GetXOR
    speak.o(.text) refers to speak.o(.data) for delayTime
    speak.o(.text) refers to speak.o(.constdata) for .constdata
    heartbeat.o(.text) refers to rt_memcpy_w.o(.text) for __aeabi_memcpy4
    heartbeat.o(.text) refers to syscomm.o(.text) for MyStrCPY
    heartbeat.o(.text) refers to w5500.o(.text) for Write_SOCK_Data_Buffer
    heartbeat.o(.text) refers to ec20.o(.text) for EC20_SendString
    heartbeat.o(.text) refers to heartbeat.o(.data) for kt_beat_info
    heartbeat.o(.text) refers to mach.o(.data) for machno
    lcd12864.o(.text) refers to stm32f10x_gpio.o(.text) for GPIO_Init
    lcd12864.o(.text) refers to lcd_config.o(.data) for num_lcd
    lcd12864_config.o(.text) refers to rt_memcpy_w.o(.text) for __aeabi_memcpy4
    lcd12864_config.o(.text) refers to ds1302.o(.text) for DS1302_Read_Time
    lcd12864_config.o(.text) refers to syscomm.o(.text) for HexToStr
    lcd12864_config.o(.text) refers to lcd12864.o(.text) for LCD_Write_String
    lcd12864_config.o(.text) refers to rt_memclr_w.o(.text) for __aeabi_memclr4
    lcd12864_config.o(.text) refers to delay.o(.text) for delay_ms
    lcd12864_config.o(.text) refers to speak.o(.text) for SYN6288_Send
    lcd12864_config.o(.text) refers to sysvar.o(.data) for showStandby
    lcd12864_config.o(.text) refers to ds1302.o(.data) for time_buf
    lcd12864_config.o(.text) refers to lcd12864_config.o(.bss) for LCDtimebuf
    lcd12864_config.o(.text) refers to ec20fun.o(.bss) for ec20_device_info
    lcd12864_config.o(.text) refers to lcd12864_config.o(.constdata) for .constdata
    lcd12864_config.o(.text) refers to keyfun.o(.bss) for keybuff
    lcd12864_config.o(.text) refers to keyfun.o(.data) for keyidx
    lcd12864_config.o(.text) refers to upload.o(.bss) for Server_Returndata
    lcd12864_config.o(.text) refers to record.o(.data) for Consum_Amount
    lcd12864_config.o(.text) refers to lcd12864_config.o(.data) for Show_moneybuf
    upload.o(.text) refers to record.o(.text) for DelUPloadRecord
    upload.o(.text) refers to syscomm.o(.text) for MyStrCPY
    upload.o(.text) refers to keyfun.o(.text) for GetWorkStatus
    upload.o(.text) refers to cardprocess.o(.text) for Check_Card_Limit
    upload.o(.text) refers to delay.o(.text) for delay_ms
    upload.o(.text) refers to lcd_config.o(.text) for LCD_ShowPlay_Card
    upload.o(.text) refers to upload.o(.data) for Card_Markok
    upload.o(.text) refers to cardprocess.o(.data) for Pay_Carderr_Code
    upload.o(.text) refers to ec20fun.o(.bss) for ec20_device_info
    upload.o(.text) refers to upload.o(.bss) for Server_Returndata
    upload.o(.text) refers to record.o(.data) for UserBalance
    upload.o(.text) refers to keyfun.o(.data) for keymoneybuff
    upload.o(.text) refers to consum_config.o(.data) for Machine_category
    upload.o(.text) refers to consum_config.o(.bss) for Fixed_consum_Moneybuf
    upload.o(.text) refers to record.o(.bss) for recorddata
    upload.o(.text) refers to qr_code.o(.data) for Asynchronous_QR_falg
    tm1650.o(.text) refers to stm32f10x_gpio.o(.text) for GPIO_Init
    tm1650.o(.text) refers to delay.o(.text) for delay_us
    tm1650.o(.text) refers to stm32f10x_rcc.o(.text) for RCC_APB2PeriphClockCmd
    tm1650.o(.text) refers to syscomm.o(.text) for MyStrEQ
    tm1650.o(.text) refers to tm1650.o(.data) for oldkey
    consum_config.o(.text) refers to 24cxx.o(.text) for AT24CXX_Write
    consum_config.o(.text) refers to syscomm.o(.text) for MyStrCMP
    consum_config.o(.text) refers to consum_config.o(.data) for Machine_category
    consum_config.o(.text) refers to consum_config.o(.bss) for Fixed_consum_Moneybuf
    consum_config.o(.text) refers to ds1302.o(.data) for time_buf
    iap_updata.o(.text) refers to iap.o(.text) for iap_write_appbin
    iap_updata.o(.text) refers to syscomm.o(.text) for MyStrCPY
    iap_updata.o(.text) refers to crc.o(.text) for CalculateCRC
    iap_updata.o(.text) refers to stmflash.o(.text) for STMFLASH_Read
    iap_updata.o(.text) refers to iap_updata.o(.data) for random_seed
    iap_updata.o(.text) refers to ds1302.o(.data) for time_buf
    iap_updata.o(.text) refers to iap_updata.o(.bss) for Receiapbuf
    iap_updata.o(.text) refers to crc.o(.data) for crchigh
    iap_updata.o(.text) refers to iap_updata.o(.constdata) for .constdata
    menu.o(.text) refers to tm1650.o(.text) for tmKeyscan
    menu.o(.text) refers to syscomm.o(.text) for Beep
    menu.o(.text) refers to lcd_dis.o(.text) for ClrScreen
    menu.o(.text) refers to delay.o(.text) for delay_ms
    menu.o(.text) refers to keyfun.o(.text) for SetWorkStatus
    menu.o(.text) refers to speak.o(.text) for SYN6288_Send
    menu.o(.text) refers to rt_memclr.o(.text) for __aeabi_memclr
    menu.o(.text) refers to sysvar.o(.data) for keyVal
    menu.o(.text) refers to keyfun.o(.data) for keyidx
    menu.o(.text) refers to menu.o(.data) for func_index
    menu.o(.text) refers to keyfun.o(.bss) for menu_keybuff
    menu.o(.text) refers to menufun.o(.data) for Mmenu_Shou_Mode
    menu.o(.text) refers to 24cxx.o(.text) for AT24CXX_Write
    menu.o(.text) refers to ec20fun.o(.text) for Init_EC20_Remote_IP
    menu.o(.text) refers to rj45cmd.o(.text) for InitRemoteIPandPORT
    menu.o(.text) refers to default.o(.text) for LoadnEC20DefaultValue
    menu.o(.text) refers to ec20fun.o(.bss) for ec20_remoteipbuf
    menu.o(.text) refers to comcmd.o(.text) for Network_Synchronization_Time
    menu.o(.text) refers to ds1302.o(.text) for SetNowTime
    menu.o(.text) refers to volume.o(.text) for SET_Volume
    menu.o(.text) refers to record.o(.text) for DelRecord
    menu.o(.text) refers to consum_config.o(.text) for DeleteConsumption_All_Money
    menu.o(.text) refers to ds1302.o(.data) for time_buf
    menu.o(.text) refers to consum_config.o(.data) for Machine_category
    menu.o(.text) refers to consum_config.o(.bss) for Fixed_consum_Moneybuf
    menu.o(.text) refers to rt_memcpy_v6.o(.text) for __aeabi_memcpy
    menu.o(.text) refers to timer.o(.text) for timedelay_s
    menu.o(.data) refers to menu.o(.text) for fun0
    menufun.o(.text) refers to rt_memcpy_v6.o(.text) for __aeabi_memcpy
    menufun.o(.text) refers to menufun.o(.data) for Mmenu_Shou_Mode
    menufun.o(.text) refers to lcd_config.o(.bss) for MenuShowBuf
    w5500.o(.text) refers to stm32f10x_gpio.o(.text) for GPIO_Init
    w5500.o(.text) refers to stm32f10x_exti.o(.text) for EXTI_Init
    w5500.o(.text) refers to misc.o(.text) for NVIC_Init
    w5500.o(.text) refers to stm32f10x_rcc.o(.text) for RCC_APB2PeriphClockCmd
    w5500.o(.text) refers to stm32f10x_spi.o(.text) for SPI_Init
    w5500.o(.text) refers to w5500.o(.data) for W5500_Interrupt
    w5500.o(.text) refers to w5500_config.o(.text) for Delay
    w5500_config.o(.text) refers to w5500.o(.text) for W5500_Init
    w5500_config.o(.text) refers to rj45cmd.o(.text) for InitLocalIPGateway
    w5500_config.o(.text) refers to rt_memcpy_v6.o(.text) for __aeabi_memcpy
    w5500_config.o(.text) refers to stm32f10x_rcc.o(.text) for RCC_APB1PeriphClockCmd
    w5500_config.o(.text) refers to stm32f10x_tim.o(.text) for TIM_TimeBaseInit
    w5500_config.o(.text) refers to misc.o(.text) for NVIC_PriorityGroupConfig
    w5500_config.o(.text) refers to w5500.o(.data) for Gateway_IP
    w5500_config.o(.text) refers to w5500.o(.bss) for S0_Rx_Buffer
    w5500_config.o(.text) refers to rj45cmd.o(.bss) for TcpClient_databuff
    w5500_config.o(.text) refers to w5500_config.o(.data) for Timer2_Counter
    rj45cmd.o(.text) refers to rt_memclr.o(.text) for __aeabi_memclr
    rj45cmd.o(.text) refers to syscomm.o(.text) for MyStrEQ
    rj45cmd.o(.text) refers to rt_memcpy_v6.o(.text) for __aeabi_memcpy
    rj45cmd.o(.text) refers to comcmd.o(.text) for Process_com_data
    rj45cmd.o(.text) refers to rt_memclr_w.o(.text) for __aeabi_memclr4
    rj45cmd.o(.text) refers to w5500.o(.text) for Write_SOCK_Data_Buffer
    rj45cmd.o(.text) refers to 24cxx.o(.text) for AT24CXX_Read
    rj45cmd.o(.text) refers to rj45cmd.o(.bss) for TcpClient_databuff
    rj45cmd.o(.text) refers to comcmd.o(.data) for Data_length
    rj45cmd.o(.text) refers to mach.o(.data) for machno
    rj45cmd.o(.text) refers to comcmd.o(.bss) for communication_data
    rj45cmd.o(.text) refers to rj45cmd.o(.constdata) for .constdata
    rj45cmd.o(.text) refers to w5500.o(.data) for Phy_Addr
    lcd_dis.o(.text) refers to stm32f10x_gpio.o(.text) for GPIO_Init
    lcd_config.o(.text) refers to rt_memcpy_w.o(.text) for __aeabi_memcpy4
    lcd_config.o(.text) refers to ds1302.o(.text) for DS1302_Read_Time
    lcd_config.o(.text) refers to syscomm.o(.text) for HexToStr
    lcd_config.o(.text) refers to lcd_dis.o(.text) for ClrScreen
    lcd_config.o(.text) refers to delay.o(.text) for delay_ms
    lcd_config.o(.text) refers to lcd12864_config.o(.text) for Clear_Standby_Display_Time
    lcd_config.o(.text) refers to ds1302.o(.data) for time_buf
    lcd_config.o(.text) refers to lcd12864_config.o(.bss) for LCDtimebuf
    lcd_config.o(.text) refers to mach.o(.data) for machno_ASCII
    lcd_config.o(.text) refers to consum_config.o(.data) for Machine_category
    lcd_config.o(.text) refers to consum_config.o(.bss) for Fixed_consum_Moneybuf
    lcd_config.o(.text) refers to ec20fun.o(.bss) for ec20_device_info
    lcd_config.o(.text) refers to record.o(.data) for rdrealtime_up_count
    lcd_config.o(.text) refers to lcd_config.o(.data) for num_lcd
    lcd_config.o(.text) refers to upload.o(.bss) for Server_Returndata
    lcd_config.o(.text) refers to record.o(.bss) for recorddata
    lcd_config.o(.text) refers to speak.o(.text) for SYN6288_Send
    lcd_config.o(.text) refers to rt_memclr.o(.text) for __aeabi_memclr
    lcd_config.o(.text) refers to rt_memclr_w.o(.text) for __aeabi_memclr4
    lcd_config.o(.text) refers to upload.o(.data) for Offline_Online_falg
    lcd_config.o(.text) refers to lcd_config.o(.constdata) for .constdata
    lcd_config.o(.text) refers to keyfun.o(.bss) for keybuff
    lcd_config.o(.text) refers to keyfun.o(.data) for keyidx
    lcd_config.o(.text) refers to menufun.o(.text) for Show_Menudata
    lcd_config.o(.text) refers to lcd12864_config.o(.data) for Show_moneybuf
    lcd_config.o(.text) refers to menufun.o(.data) for Shou_Selection_box
    lcd_config.o(.text) refers to lcd_config.o(.bss) for MenuShowBuf
    lcd_config.o(.text) refers to w25qxx.o(.text) for SPI_Flash_Read
    crc.o(.text) refers to rt_memcpy_w.o(.text) for __aeabi_memcpy4
    crc.o(.text) refers to crc.o(.constdata) for .constdata
    crc.o(.text) refers to crc.o(.data) for crchigh
    iap.o(.text) refers to stmflash.o(.text) for STMFLASH_Write
    iap.o(.text) refers to sys.o(.emb_text) for MSR_MSP
    iap.o(.text) refers to iap.o(.bss) for iapbuf
    iap.o(.text) refers to iap.o(.data) for jump2app
    use_no_semi_2.o(.text) refers (Special) to use_no_semi.o(.text) for __use_no_semihosting_swi
    toupper.o(.text) refers to rt_ctype_table.o(.text) for __rt_ctype_table
    rt_memcpy_v6.o(.text) refers to rt_memcpy_w.o(.text) for __aeabi_memcpy4
    rt_memclr.o(.text) refers to rt_memclr_w.o(.text) for _memset_w
    __main.o(!!!main) refers to __rtentry.o(.ARM.Collect$$rtentry$$00000000) for __rt_entry
    __rtentry.o(.ARM.Collect$$rtentry$$00000000) refers (Special) to __rtentry2.o(.ARM.Collect$$rtentry$$0000000A) for __rt_entry_li
    __rtentry.o(.ARM.Collect$$rtentry$$00000000) refers (Special) to __rtentry2.o(.ARM.Collect$$rtentry$$0000000D) for __rt_entry_main
    __rtentry.o(.ARM.Collect$$rtentry$$00000000) refers (Special) to __rtentry2.o(.ARM.Collect$$rtentry$$0000000C) for __rt_entry_postli_1
    __rtentry.o(.ARM.Collect$$rtentry$$00000000) refers (Special) to __rtentry2.o(.ARM.Collect$$rtentry$$00000009) for __rt_entry_postsh_1
    __rtentry.o(.ARM.Collect$$rtentry$$00000000) refers (Special) to __rtentry2.o(.ARM.Collect$$rtentry$$00000002) for __rt_entry_presh_1
    __rtentry.o(.ARM.Collect$$rtentry$$00000000) refers (Special) to __rtentry4.o(.ARM.Collect$$rtentry$$00000004) for __rt_entry_sh
    rt_ctype_table.o(.text) refers to rt_locale_intlibspace.o(.text) for __rt_locale
    rt_ctype_table.o(.text) refers to lc_ctype_c.o(locale$$code) for _get_lc_ctype
    __rtentry2.o(.ARM.Collect$$rtentry$$00000008) refers to boardinit2.o(.text) for _platform_post_stackheap_init
    __rtentry2.o(.ARM.Collect$$rtentry$$0000000A) refers to libinit.o(.ARM.Collect$$libinit$$00000000) for __rt_lib_init
    __rtentry2.o(.ARM.Collect$$rtentry$$0000000B) refers to boardinit3.o(.text) for _platform_post_lib_init
    __rtentry2.o(.ARM.Collect$$rtentry$$0000000D) refers to main.o(.text) for main
    __rtentry2.o(.ARM.Collect$$rtentry$$0000000D) refers to exit.o(.text) for exit
    __rtentry2.o(.ARM.exidx) refers to __rtentry2.o(.ARM.Collect$$rtentry$$00000001) for .ARM.Collect$$rtentry$$00000001
    __rtentry2.o(.ARM.exidx) refers to __rtentry2.o(.ARM.Collect$$rtentry$$00000008) for .ARM.Collect$$rtentry$$00000008
    __rtentry2.o(.ARM.exidx) refers to __rtentry2.o(.ARM.Collect$$rtentry$$0000000A) for .ARM.Collect$$rtentry$$0000000A
    __rtentry2.o(.ARM.exidx) refers to __rtentry2.o(.ARM.Collect$$rtentry$$0000000B) for .ARM.Collect$$rtentry$$0000000B
    __rtentry2.o(.ARM.exidx) refers to __rtentry2.o(.ARM.Collect$$rtentry$$0000000D) for .ARM.Collect$$rtentry$$0000000D
    __rtentry4.o(.ARM.Collect$$rtentry$$00000004) refers to sys_stackheap_outer.o(.text) for __user_setup_stackheap
    __rtentry4.o(.ARM.exidx) refers to __rtentry4.o(.ARM.Collect$$rtentry$$00000004) for .ARM.Collect$$rtentry$$00000004
    rt_locale.o(.text) refers to rt_locale.o(.bss) for __rt_locale_data
    rt_locale_intlibspace.o(.text) refers to libspace.o(.bss) for __libspace_start
    lc_ctype_c.o(locale$$data) refers (Special) to libinit2.o(.ARM.Collect$$libinit$$00000012) for __rt_lib_init_lc_ctype_2
    lc_ctype_c.o(locale$$code) refers (Special) to libinit2.o(.ARM.Collect$$libinit$$00000012) for __rt_lib_init_lc_ctype_2
    lc_ctype_c.o(locale$$code) refers to strcmpv7m.o(.text) for strcmp
    lc_ctype_c.o(locale$$code) refers to lc_ctype_c.o(locale$$data) for __lcctype_c_name
    libspace.o(.text) refers to libspace.o(.bss) for __libspace_start
    sys_stackheap_outer.o(.text) refers to libspace.o(.text) for __user_perproc_libspace
    sys_stackheap_outer.o(.text) refers to startup_stm32f10x_hd.o(.text) for __user_initial_stackheap
    exit.o(.text) refers to rtexit.o(.ARM.Collect$$rtexit$$00000000) for __rt_exit
    libinit.o(.ARM.Collect$$libinit$$00000000) refers (Special) to libinit2.o(.ARM.Collect$$libinit$$0000002E) for __rt_lib_init_alloca_1
    libinit.o(.ARM.Collect$$libinit$$00000000) refers (Special) to libinit2.o(.ARM.Collect$$libinit$$0000002C) for __rt_lib_init_argv_1
    libinit.o(.ARM.Collect$$libinit$$00000000) refers (Special) to libinit2.o(.ARM.Collect$$libinit$$0000001B) for __rt_lib_init_atexit_1
    libinit.o(.ARM.Collect$$libinit$$00000000) refers (Special) to libinit2.o(.ARM.Collect$$libinit$$00000021) for __rt_lib_init_clock_1
    libinit.o(.ARM.Collect$$libinit$$00000000) refers (Special) to libinit2.o(.ARM.Collect$$libinit$$00000032) for __rt_lib_init_cpp_1
    libinit.o(.ARM.Collect$$libinit$$00000000) refers (Special) to libinit2.o(.ARM.Collect$$libinit$$00000030) for __rt_lib_init_exceptions_1
    libinit.o(.ARM.Collect$$libinit$$00000000) refers (Special) to libinit2.o(.ARM.Collect$$libinit$$00000002) for __rt_lib_init_fp_1
    libinit.o(.ARM.Collect$$libinit$$00000000) refers (Special) to libinit2.o(.ARM.Collect$$libinit$$0000001F) for __rt_lib_init_fp_trap_1
    libinit.o(.ARM.Collect$$libinit$$00000000) refers (Special) to libinit2.o(.ARM.Collect$$libinit$$00000023) for __rt_lib_init_getenv_1
    libinit.o(.ARM.Collect$$libinit$$00000000) refers (Special) to libinit2.o(.ARM.Collect$$libinit$$0000000A) for __rt_lib_init_heap_1
    libinit.o(.ARM.Collect$$libinit$$00000000) refers (Special) to libinit2.o(.ARM.Collect$$libinit$$00000011) for __rt_lib_init_lc_collate_1
    libinit.o(.ARM.Collect$$libinit$$00000000) refers (Special) to libinit2.o(.ARM.Collect$$libinit$$00000013) for __rt_lib_init_lc_ctype_1
    libinit.o(.ARM.Collect$$libinit$$00000000) refers (Special) to libinit2.o(.ARM.Collect$$libinit$$00000015) for __rt_lib_init_lc_monetary_1
    libinit.o(.ARM.Collect$$libinit$$00000000) refers (Special) to libinit2.o(.ARM.Collect$$libinit$$00000017) for __rt_lib_init_lc_numeric_1
    libinit.o(.ARM.Collect$$libinit$$00000000) refers (Special) to libinit2.o(.ARM.Collect$$libinit$$00000019) for __rt_lib_init_lc_time_1
    libinit.o(.ARM.Collect$$libinit$$00000000) refers (Special) to libinit2.o(.ARM.Collect$$libinit$$00000004) for __rt_lib_init_preinit_1
    libinit.o(.ARM.Collect$$libinit$$00000000) refers (Special) to libinit2.o(.ARM.Collect$$libinit$$0000000E) for __rt_lib_init_rand_1
    libinit.o(.ARM.Collect$$libinit$$00000000) refers (Special) to libinit2.o(.ARM.Collect$$libinit$$00000033) for __rt_lib_init_return
    libinit.o(.ARM.Collect$$libinit$$00000000) refers (Special) to libinit2.o(.ARM.Collect$$libinit$$0000001D) for __rt_lib_init_signal_1
    libinit.o(.ARM.Collect$$libinit$$00000000) refers (Special) to libinit2.o(.ARM.Collect$$libinit$$00000025) for __rt_lib_init_stdio_1
    libinit.o(.ARM.Collect$$libinit$$00000000) refers (Special) to libinit2.o(.ARM.Collect$$libinit$$0000000C) for __rt_lib_init_user_alloc_1
    libinit2.o(.ARM.Collect$$libinit$$0000000F) refers (Weak) to rt_locale_intlibspace.o(.text) for __rt_locale
    libinit2.o(.ARM.Collect$$libinit$$00000010) refers to libinit2.o(.ARM.Collect$$libinit$$0000000F) for .ARM.Collect$$libinit$$0000000F
    libinit2.o(.ARM.Collect$$libinit$$00000012) refers to libinit2.o(.ARM.Collect$$libinit$$0000000F) for .ARM.Collect$$libinit$$0000000F
    libinit2.o(.ARM.Collect$$libinit$$00000012) refers (Weak) to lc_ctype_c.o(locale$$code) for _get_lc_ctype
    libinit2.o(.ARM.Collect$$libinit$$00000014) refers to libinit2.o(.ARM.Collect$$libinit$$0000000F) for .ARM.Collect$$libinit$$0000000F
    libinit2.o(.ARM.Collect$$libinit$$00000016) refers to libinit2.o(.ARM.Collect$$libinit$$0000000F) for .ARM.Collect$$libinit$$0000000F
    libinit2.o(.ARM.Collect$$libinit$$00000018) refers to libinit2.o(.ARM.Collect$$libinit$$0000000F) for .ARM.Collect$$libinit$$0000000F
    libinit2.o(.ARM.Collect$$libinit$$00000026) refers to argv_veneer.o(.emb_text) for __ARM_argv_veneer
    libinit2.o(.ARM.Collect$$libinit$$00000027) refers to argv_veneer.o(.emb_text) for __ARM_argv_veneer
    rtexit.o(.ARM.Collect$$rtexit$$00000000) refers (Special) to rtexit2.o(.ARM.Collect$$rtexit$$00000004) for __rt_exit_exit
    rtexit.o(.ARM.Collect$$rtexit$$00000000) refers (Special) to rtexit2.o(.ARM.Collect$$rtexit$$00000003) for __rt_exit_ls
    rtexit.o(.ARM.Collect$$rtexit$$00000000) refers (Special) to rtexit2.o(.ARM.Collect$$rtexit$$00000002) for __rt_exit_prels_1
    rtexit.o(.ARM.exidx) refers (Special) to rtexit2.o(.ARM.Collect$$rtexit$$00000004) for __rt_exit_exit
    rtexit.o(.ARM.exidx) refers (Special) to rtexit2.o(.ARM.Collect$$rtexit$$00000003) for __rt_exit_ls
    rtexit.o(.ARM.exidx) refers (Special) to rtexit2.o(.ARM.Collect$$rtexit$$00000002) for __rt_exit_prels_1
    rtexit.o(.ARM.exidx) refers to rtexit.o(.ARM.Collect$$rtexit$$00000000) for .ARM.Collect$$rtexit$$00000000
    argv_veneer.o(.emb_text) refers to no_argv.o(.text) for __ARM_get_argv
    rtexit2.o(.ARM.Collect$$rtexit$$00000003) refers to libshutdown.o(.ARM.Collect$$libshutdown$$00000000) for __rt_lib_shutdown
    rtexit2.o(.ARM.Collect$$rtexit$$00000004) refers to usart.o(.text) for _sys_exit
    rtexit2.o(.ARM.exidx) refers to rtexit2.o(.ARM.Collect$$rtexit$$00000001) for .ARM.Collect$$rtexit$$00000001
    rtexit2.o(.ARM.exidx) refers to rtexit2.o(.ARM.Collect$$rtexit$$00000003) for .ARM.Collect$$rtexit$$00000003
    rtexit2.o(.ARM.exidx) refers to rtexit2.o(.ARM.Collect$$rtexit$$00000004) for .ARM.Collect$$rtexit$$00000004
    _get_argv_nomalloc.o(.text) refers (Special) to hrguard.o(.text) for __heap_region$guard
    _get_argv_nomalloc.o(.text) refers to defsig_rtmem_outer.o(.text) for __rt_SIGRTMEM
    _get_argv_nomalloc.o(.text) refers to sys_command.o(.text) for _sys_command_string
    sys_command.o(.text) refers (Special) to use_no_semi.o(.text) for __I$use$semihosting
    sys_command.o(.text) refers (Special) to indicate_semi.o(.text) for __semihosting_library_function
    defsig_rtmem_outer.o(.text) refers to defsig_rtmem_inner.o(.text) for __rt_SIGRTMEM_inner
    defsig_rtmem_outer.o(.text) refers to defsig_exit.o(.text) for __sig_exit
    defsig_rtmem_formal.o(.text) refers to rt_raise.o(.text) for __rt_raise
    libshutdown.o(.ARM.Collect$$libshutdown$$00000000) refers (Special) to libshutdown2.o(.ARM.Collect$$libshutdown$$00000002) for __rt_lib_shutdown_cpp_1
    libshutdown.o(.ARM.Collect$$libshutdown$$00000000) refers (Special) to libshutdown2.o(.ARM.Collect$$libshutdown$$00000007) for __rt_lib_shutdown_fp_trap_1
    libshutdown.o(.ARM.Collect$$libshutdown$$00000000) refers (Special) to libshutdown2.o(.ARM.Collect$$libshutdown$$0000000F) for __rt_lib_shutdown_heap_1
    libshutdown.o(.ARM.Collect$$libshutdown$$00000000) refers (Special) to libshutdown2.o(.ARM.Collect$$libshutdown$$00000010) for __rt_lib_shutdown_return
    libshutdown.o(.ARM.Collect$$libshutdown$$00000000) refers (Special) to libshutdown2.o(.ARM.Collect$$libshutdown$$0000000A) for __rt_lib_shutdown_signal_1
    libshutdown.o(.ARM.Collect$$libshutdown$$00000000) refers (Special) to libshutdown2.o(.ARM.Collect$$libshutdown$$00000004) for __rt_lib_shutdown_stdio_1
    libshutdown.o(.ARM.Collect$$libshutdown$$00000000) refers (Special) to libshutdown2.o(.ARM.Collect$$libshutdown$$0000000C) for __rt_lib_shutdown_user_alloc_1
    rt_raise.o(.text) refers to __raise.o(.text) for __raise
    rt_raise.o(.text) refers to usart.o(.text) for _sys_exit
    defsig_exit.o(.text) refers to usart.o(.text) for _sys_exit
    defsig_rtmem_inner.o(.text) refers to defsig_general.o(.text) for __default_signal_display
    __raise.o(.text) refers to defsig.o(CL$$defsig) for __default_signal_handler
    defsig_general.o(.text) refers to sys_wrch.o(.text) for _ttywrch
    sys_wrch.o(.text) refers (Special) to use_no_semi.o(.text) for __I$use$semihosting
    sys_wrch.o(.text) refers (Special) to indicate_semi.o(.text) for __semihosting_library_function
    defsig.o(CL$$defsig) refers to defsig_rtmem_inner.o(.text) for __rt_SIGRTMEM_inner
    defsig_abrt_inner.o(.text) refers to defsig_general.o(.text) for __default_signal_display
    defsig_fpe_inner.o(.text) refers to defsig_general.o(.text) for __default_signal_display
    defsig_rtred_inner.o(.text) refers to defsig_general.o(.text) for __default_signal_display
    defsig_stak_inner.o(.text) refers to defsig_general.o(.text) for __default_signal_display
    defsig_pvfn_inner.o(.text) refers to defsig_general.o(.text) for __default_signal_display
    defsig_cppl_inner.o(.text) refers to defsig_general.o(.text) for __default_signal_display
    defsig_segv_inner.o(.text) refers to defsig_general.o(.text) for __default_signal_display
    defsig_other.o(.text) refers to defsig_general.o(.text) for __default_signal_display


==============================================================================

Removing Unused input sections from the image.

    Removing main.o(.constdata), (6 bytes).
    Removing main.o(.data), (21 bytes).
    Removing key.o(.text), (980 bytes).
    Removing key.o(.data), (7 bytes).
    Removing w25qxx.o(.data), (6 bytes).
    Removing optocoupler.o(.text), (56 bytes).
    Removing 24cxx.o(.data), (4 bytes).
    Removing rs485.o(.data), (4 bytes).
    Removing volume.o(.data), (4 bytes).
    Removing sys.o(.text), (12 bytes).
    Removing core_cm3.o(.emb_text), (32 bytes).
    Removing stm32f10x_adc.o(.text), (1102 bytes).
    Removing stm32f10x_bkp.o(.text), (196 bytes).
    Removing stm32f10x_cec.o(.text), (288 bytes).
    Removing stm32f10x_crc.o(.text), (72 bytes).
    Removing stm32f10x_pwr.o(.text), (204 bytes).
    Removing stm32f10x_rtc.o(.text), (328 bytes).
    Removing stm32f10x_wwdg.o(.text), (136 bytes).
    Removing rc522_config.o(.data), (4 bytes).
    Removing at24c256.o(.data), (4 bytes).
    Removing syscomm.o(.data), (4 bytes).
    Removing pass.o(.data), (4 bytes).
    Removing wifi.o(.text), (340 bytes).
    Removing wifi.o(.constdata), (44 bytes).
    Removing wifi.o(.data), (20 bytes).
    Removing lcd12864.o(.data), (4 bytes).
    Removing wisdom_plate.o(.data), (4 bytes).
    Removing rj45cmd.o(.data), (4 bytes).
    Removing lcd_dis.o(.data), (4 bytes).

29 unused section(s) (total 3894 bytes) removed from the image.

==============================================================================

Image Symbol Table

    Local Symbols

    Symbol Name                              Value     Ov Type        Size  Object(Section)

    ../clib/angel/boardlib.s                 0x00000000   Number         0  boardinit3.o ABSOLUTE
    ../clib/angel/boardlib.s                 0x00000000   Number         0  boardshut.o ABSOLUTE
    ../clib/angel/boardlib.s                 0x00000000   Number         0  boardinit2.o ABSOLUTE
    ../clib/angel/boardlib.s                 0x00000000   Number         0  boardinit1.o ABSOLUTE
    ../clib/angel/dczerorl2.s                0x00000000   Number         0  __dczerorl2.o ABSOLUTE
    ../clib/angel/handlers.s                 0x00000000   Number         0  __scatter_zi.o ABSOLUTE
    ../clib/angel/kernel.s                   0x00000000   Number         0  __rtentry4.o ABSOLUTE
    ../clib/angel/kernel.s                   0x00000000   Number         0  __rtentry2.o ABSOLUTE
    ../clib/angel/kernel.s                   0x00000000   Number         0  rtexit.o ABSOLUTE
    ../clib/angel/kernel.s                   0x00000000   Number         0  __rtentry.o ABSOLUTE
    ../clib/angel/kernel.s                   0x00000000   Number         0  rtexit2.o ABSOLUTE
    ../clib/angel/rt.s                       0x00000000   Number         0  rt_locale_intlibspace.o ABSOLUTE
    ../clib/angel/rt.s                       0x00000000   Number         0  rt_raise.o ABSOLUTE
    ../clib/angel/rt.s                       0x00000000   Number         0  rt_ctype_table.o ABSOLUTE
    ../clib/angel/rt.s                       0x00000000   Number         0  rt_locale.o ABSOLUTE
    ../clib/angel/scatter.s                  0x00000000   Number         0  __scatter.o ABSOLUTE
    ../clib/angel/startup.s                  0x00000000   Number         0  __main.o ABSOLUTE
    ../clib/angel/sys.s                      0x00000000   Number         0  indicate_semi.o ABSOLUTE
    ../clib/angel/sys.s                      0x00000000   Number         0  sys_stackheap_outer.o ABSOLUTE
    ../clib/angel/sys.s                      0x00000000   Number         0  use_no_semi_2.o ABSOLUTE
    ../clib/angel/sys.s                      0x00000000   Number         0  libspace.o ABSOLUTE
    ../clib/angel/sys.s                      0x00000000   Number         0  use_no_semi.o ABSOLUTE
    ../clib/angel/sysapp.c                   0x00000000   Number         0  sys_wrch.o ABSOLUTE
    ../clib/angel/sysapp.c                   0x00000000   Number         0  sys_command.o ABSOLUTE
    ../clib/armsys.c                         0x00000000   Number         0  no_argv.o ABSOLUTE
    ../clib/armsys.c                         0x00000000   Number         0  argv_veneer.o ABSOLUTE
    ../clib/armsys.c                         0x00000000   Number         0  argv_veneer.o ABSOLUTE
    ../clib/armsys.c                         0x00000000   Number         0  _get_argv_nomalloc.o ABSOLUTE
    ../clib/ctype.c                          0x00000000   Number         0  toupper.o ABSOLUTE
    ../clib/heapalloc.c                      0x00000000   Number         0  hrguard.o ABSOLUTE
    ../clib/heapaux.c                        0x00000000   Number         0  heapauxi.o ABSOLUTE
    ../clib/libinit.s                        0x00000000   Number         0  libshutdown2.o ABSOLUTE
    ../clib/libinit.s                        0x00000000   Number         0  libinit2.o ABSOLUTE
    ../clib/libinit.s                        0x00000000   Number         0  libinit.o ABSOLUTE
    ../clib/libinit.s                        0x00000000   Number         0  libshutdown.o ABSOLUTE
    ../clib/locale.s                         0x00000000   Number         0  lc_ctype_c.o ABSOLUTE
    ../clib/memcpset.s                       0x00000000   Number         0  strcmpv7m.o ABSOLUTE
    ../clib/memcpset.s                       0x00000000   Number         0  rt_memclr.o ABSOLUTE
    ../clib/memcpset.s                       0x00000000   Number         0  rt_memcpy_v6.o ABSOLUTE
    ../clib/memcpset.s                       0x00000000   Number         0  rt_memcpy_w.o ABSOLUTE
    ../clib/memcpset.s                       0x00000000   Number         0  rt_memclr_w.o ABSOLUTE
    ../clib/signal.c                         0x00000000   Number         0  defsig_cppl_inner.o ABSOLUTE
    ../clib/signal.c                         0x00000000   Number         0  defsig_segv_inner.o ABSOLUTE
    ../clib/signal.c                         0x00000000   Number         0  defsig_rtmem_formal.o ABSOLUTE
    ../clib/signal.c                         0x00000000   Number         0  defsig_other.o ABSOLUTE
    ../clib/signal.c                         0x00000000   Number         0  defsig_exit.o ABSOLUTE
    ../clib/signal.c                         0x00000000   Number         0  defsig_pvfn_inner.o ABSOLUTE
    ../clib/signal.c                         0x00000000   Number         0  defsig_rtmem_inner.o ABSOLUTE
    ../clib/signal.c                         0x00000000   Number         0  defsig_rtmem_outer.o ABSOLUTE
    ../clib/signal.c                         0x00000000   Number         0  __raise.o ABSOLUTE
    ../clib/signal.c                         0x00000000   Number         0  defsig_general.o ABSOLUTE
    ../clib/signal.c                         0x00000000   Number         0  defsig_abrt_inner.o ABSOLUTE
    ../clib/signal.c                         0x00000000   Number         0  defsig_fpe_inner.o ABSOLUTE
    ../clib/signal.c                         0x00000000   Number         0  defsig_rtred_inner.o ABSOLUTE
    ../clib/signal.c                         0x00000000   Number         0  defsig_stak_inner.o ABSOLUTE
    ../clib/signal.s                         0x00000000   Number         0  defsig.o ABSOLUTE
    ../clib/stdlib.c                         0x00000000   Number         0  exit.o ABSOLUTE
    ../clib/string.c                         0x00000000   Number         0  strstr.o ABSOLUTE
    ../fplib/fpinit.s                        0x00000000   Number         0  fpinit.o ABSOLUTE
    ..\CORE\core_cm3.c                       0x00000000   Number         0  core_cm3.o ABSOLUTE
    ..\CORE\startup_stm32f10x_hd.s           0x00000000   Number         0  startup_stm32f10x_hd.o ABSOLUTE
    ..\CRC\crc.c                             0x00000000   Number         0  crc.o ABSOLUTE
    ..\DS1302\ds1302.c                       0x00000000   Number         0  ds1302.o ABSOLUTE
    ..\GUI\MenuFun.c                         0x00000000   Number         0  menufun.o ABSOLUTE
    ..\GUI\menu.c                            0x00000000   Number         0  menu.o ABSOLUTE
    ..\HARDWARE\24CXX\24cxx.c                0x00000000   Number         0  24cxx.o ABSOLUTE
    ..\HARDWARE\24CXX_2\24cxx_2.c            0x00000000   Number         0  24cxx_2.o ABSOLUTE
    ..\HARDWARE\BEEP\beep.c                  0x00000000   Number         0  beep.o ABSOLUTE
    ..\HARDWARE\EC20\EC20.c                  0x00000000   Number         0  ec20.o ABSOLUTE
    ..\HARDWARE\IIC\myiic.c                  0x00000000   Number         0  myiic.o ABSOLUTE
    ..\HARDWARE\IIC_2\myiic_2.c              0x00000000   Number         0  myiic_2.o ABSOLUTE
    ..\HARDWARE\KEY\SYSREST.c                0x00000000   Number         0  sysrest.o ABSOLUTE
    ..\HARDWARE\KEY\key.c                    0x00000000   Number         0  key.o ABSOLUTE
    ..\HARDWARE\LED\led.c                    0x00000000   Number         0  led.o ABSOLUTE
    ..\HARDWARE\Optocoupler\Optocoupler.c    0x00000000   Number         0  optocoupler.o ABSOLUTE
    ..\HARDWARE\RELAY\Relay.c                0x00000000   Number         0  relay.o ABSOLUTE
    ..\HARDWARE\RS485\rs485.c                0x00000000   Number         0  rs485.o ABSOLUTE
    ..\HARDWARE\SPI\spi.c                    0x00000000   Number         0  spi.o ABSOLUTE
    ..\HARDWARE\STMFLASH\stmflash.c          0x00000000   Number         0  stmflash.o ABSOLUTE
    ..\HARDWARE\TIMER\timer.c                0x00000000   Number         0  timer.o ABSOLUTE
    ..\HARDWARE\Volume\Volume.c              0x00000000   Number         0  volume.o ABSOLUTE
    ..\HARDWARE\W25QXX\W25QXX.c              0x00000000   Number         0  w25qxx.o ABSOLUTE
    ..\HARDWARE\WDG\wdg.c                    0x00000000   Number         0  wdg.o ABSOLUTE
    ..\HARDWARE\wg\wg1.c                     0x00000000   Number         0  wg1.o ABSOLUTE
    ..\HARDWARE\wg\wg2.c                     0x00000000   Number         0  wg2.o ABSOLUTE
    ..\IAP\iap.c                             0x00000000   Number         0  iap.o ABSOLUTE
    ..\LCD_Driver\LCD_Config.c               0x00000000   Number         0  lcd_config.o ABSOLUTE
    ..\LCD_Driver\LCD_Dis.c                  0x00000000   Number         0  lcd_dis.o ABSOLUTE
    ..\RC522\rc522_config.c                  0x00000000   Number         0  rc522_config.o ABSOLUTE
    ..\RC522\rc522_function.c                0x00000000   Number         0  rc522_function.o ABSOLUTE
    ..\STM32F10x_FWLib\src\misc.c            0x00000000   Number         0  misc.o ABSOLUTE
    ..\STM32F10x_FWLib\src\stm32f10x_adc.c   0x00000000   Number         0  stm32f10x_adc.o ABSOLUTE
    ..\STM32F10x_FWLib\src\stm32f10x_bkp.c   0x00000000   Number         0  stm32f10x_bkp.o ABSOLUTE
    ..\STM32F10x_FWLib\src\stm32f10x_cec.c   0x00000000   Number         0  stm32f10x_cec.o ABSOLUTE
    ..\STM32F10x_FWLib\src\stm32f10x_crc.c   0x00000000   Number         0  stm32f10x_crc.o ABSOLUTE
    ..\STM32F10x_FWLib\src\stm32f10x_exti.c  0x00000000   Number         0  stm32f10x_exti.o ABSOLUTE
    ..\STM32F10x_FWLib\src\stm32f10x_flash.c 0x00000000   Number         0  stm32f10x_flash.o ABSOLUTE
    ..\STM32F10x_FWLib\src\stm32f10x_gpio.c  0x00000000   Number         0  stm32f10x_gpio.o ABSOLUTE
    ..\STM32F10x_FWLib\src\stm32f10x_iwdg.c  0x00000000   Number         0  stm32f10x_iwdg.o ABSOLUTE
    ..\STM32F10x_FWLib\src\stm32f10x_pwr.c   0x00000000   Number         0  stm32f10x_pwr.o ABSOLUTE
    ..\STM32F10x_FWLib\src\stm32f10x_rcc.c   0x00000000   Number         0  stm32f10x_rcc.o ABSOLUTE
    ..\STM32F10x_FWLib\src\stm32f10x_rtc.c   0x00000000   Number         0  stm32f10x_rtc.o ABSOLUTE
    ..\STM32F10x_FWLib\src\stm32f10x_spi.c   0x00000000   Number         0  stm32f10x_spi.o ABSOLUTE
    ..\STM32F10x_FWLib\src\stm32f10x_tim.c   0x00000000   Number         0  stm32f10x_tim.o ABSOLUTE
    ..\STM32F10x_FWLib\src\stm32f10x_usart.c 0x00000000   Number         0  stm32f10x_usart.o ABSOLUTE
    ..\STM32F10x_FWLib\src\stm32f10x_wwdg.c  0x00000000   Number         0  stm32f10x_wwdg.o ABSOLUTE
    ..\SYSFUN\AT24C256.c                     0x00000000   Number         0  at24c256.o ABSOLUTE
    ..\SYSFUN\BlackName.c                    0x00000000   Number         0  blackname.o ABSOLUTE
    ..\SYSFUN\COMCMD.c                       0x00000000   Number         0  comcmd.o ABSOLUTE
    ..\SYSFUN\CardProcess.c                  0x00000000   Number         0  cardprocess.o ABSOLUTE
    ..\SYSFUN\Cardrw.c                       0x00000000   Number         0  cardrw.o ABSOLUTE
    ..\SYSFUN\Consum_Config.c                0x00000000   Number         0  consum_config.o ABSOLUTE
    ..\SYSFUN\Default.c                      0x00000000   Number         0  default.o ABSOLUTE
    ..\SYSFUN\EC20fun.c                      0x00000000   Number         0  ec20fun.o ABSOLUTE
    ..\SYSFUN\Heartbeat.c                    0x00000000   Number         0  heartbeat.o ABSOLUTE
    ..\SYSFUN\IAP_UpData.c                   0x00000000   Number         0  iap_updata.o ABSOLUTE
    ..\SYSFUN\Interval.c                     0x00000000   Number         0  interval.o ABSOLUTE
    ..\SYSFUN\LCD12864.c                     0x00000000   Number         0  lcd12864.o ABSOLUTE
    ..\SYSFUN\LCD12864_Config.c              0x00000000   Number         0  lcd12864_config.o ABSOLUTE
    ..\SYSFUN\Mach.c                         0x00000000   Number         0  mach.o ABSOLUTE
    ..\SYSFUN\Name.c                         0x00000000   Number         0  name.o ABSOLUTE
    ..\SYSFUN\Pass.c                         0x00000000   Number         0  pass.o ABSOLUTE
    ..\SYSFUN\QR_code.c                      0x00000000   Number         0  qr_code.o ABSOLUTE
    ..\SYSFUN\Record.c                       0x00000000   Number         0  record.o ABSOLUTE
    ..\SYSFUN\Upload.c                       0x00000000   Number         0  upload.o ABSOLUTE
    ..\SYSFUN\WIFI.c                         0x00000000   Number         0  wifi.o ABSOLUTE
    ..\SYSFUN\Wisdom_plate.c                 0x00000000   Number         0  wisdom_plate.o ABSOLUTE
    ..\SYSFUN\keyfun.c                       0x00000000   Number         0  keyfun.o ABSOLUTE
    ..\SYSFUN\speak.c                        0x00000000   Number         0  speak.o ABSOLUTE
    ..\SYSFUN\syscomm.c                      0x00000000   Number         0  syscomm.o ABSOLUTE
    ..\SYSFUN\tm1650.c                       0x00000000   Number         0  tm1650.o ABSOLUTE
    ..\SYSTEM\delay\delay.c                  0x00000000   Number         0  delay.o ABSOLUTE
    ..\SYSTEM\sys\sys.c                      0x00000000   Number         0  sys.o ABSOLUTE
    ..\SYSTEM\usart\usart.c                  0x00000000   Number         0  usart.o ABSOLUTE
    ..\Sysvar\Sysvar.c                       0x00000000   Number         0  sysvar.o ABSOLUTE
    ..\W5500\RJ45CMD.c                       0x00000000   Number         0  rj45cmd.o ABSOLUTE
    ..\W5500\W5500.c                         0x00000000   Number         0  w5500.o ABSOLUTE
    ..\W5500\W5500_Config.c                  0x00000000   Number         0  w5500_config.o ABSOLUTE
    ..\\CORE\\core_cm3.c                     0x00000000   Number         0  core_cm3.o ABSOLUTE
    ..\\SYSTEM\\sys\\sys.c                   0x00000000   Number         0  sys.o ABSOLUTE
    GPIO-ALS.c                               0x00000000   Number         0  gpio-als.o ABSOLUTE
    dc.s                                     0x00000000   Number         0  dc.o ABSOLUTE
    main.c                                   0x00000000   Number         0  main.o ABSOLUTE
    stm32f10x_it.c                           0x00000000   Number         0  stm32f10x_it.o ABSOLUTE
    system_stm32f10x.c                       0x00000000   Number         0  system_stm32f10x.o ABSOLUTE
    RESET                                    0x08006000   Section      304  startup_stm32f10x_hd.o(RESET)
    !!!main                                  0x08006130   Section        8  __main.o(!!!main)
    !!!scatter                               0x08006138   Section       52  __scatter.o(!!!scatter)
    !!dczerorl2                              0x0800616c   Section       90  __dczerorl2.o(!!dczerorl2)
    !!handler_zi                             0x080061c8   Section       28  __scatter_zi.o(!!handler_zi)
    .ARM.Collect$$libinit$$00000000          0x080061e4   Section        2  libinit.o(.ARM.Collect$$libinit$$00000000)
    .ARM.Collect$$libinit$$00000002          0x080061e6   Section        0  libinit2.o(.ARM.Collect$$libinit$$00000002)
    .ARM.Collect$$libinit$$00000004          0x080061e6   Section        0  libinit2.o(.ARM.Collect$$libinit$$00000004)
    .ARM.Collect$$libinit$$0000000A          0x080061e6   Section        0  libinit2.o(.ARM.Collect$$libinit$$0000000A)
    .ARM.Collect$$libinit$$0000000C          0x080061e6   Section        0  libinit2.o(.ARM.Collect$$libinit$$0000000C)
    .ARM.Collect$$libinit$$0000000E          0x080061e6   Section        0  libinit2.o(.ARM.Collect$$libinit$$0000000E)
    .ARM.Collect$$libinit$$0000000F          0x080061e6   Section        6  libinit2.o(.ARM.Collect$$libinit$$0000000F)
    .ARM.Collect$$libinit$$00000011          0x080061ec   Section        0  libinit2.o(.ARM.Collect$$libinit$$00000011)
    .ARM.Collect$$libinit$$00000012          0x080061ec   Section       12  libinit2.o(.ARM.Collect$$libinit$$00000012)
    .ARM.Collect$$libinit$$00000013          0x080061f8   Section        0  libinit2.o(.ARM.Collect$$libinit$$00000013)
    .ARM.Collect$$libinit$$00000015          0x080061f8   Section        0  libinit2.o(.ARM.Collect$$libinit$$00000015)
    .ARM.Collect$$libinit$$00000017          0x080061f8   Section        0  libinit2.o(.ARM.Collect$$libinit$$00000017)
    .ARM.Collect$$libinit$$00000019          0x080061f8   Section        0  libinit2.o(.ARM.Collect$$libinit$$00000019)
    .ARM.Collect$$libinit$$0000001B          0x080061f8   Section        0  libinit2.o(.ARM.Collect$$libinit$$0000001B)
    .ARM.Collect$$libinit$$0000001D          0x080061f8   Section        0  libinit2.o(.ARM.Collect$$libinit$$0000001D)
    .ARM.Collect$$libinit$$0000001F          0x080061f8   Section        0  libinit2.o(.ARM.Collect$$libinit$$0000001F)
    .ARM.Collect$$libinit$$00000021          0x080061f8   Section        0  libinit2.o(.ARM.Collect$$libinit$$00000021)
    .ARM.Collect$$libinit$$00000023          0x080061f8   Section        0  libinit2.o(.ARM.Collect$$libinit$$00000023)
    .ARM.Collect$$libinit$$00000025          0x080061f8   Section        0  libinit2.o(.ARM.Collect$$libinit$$00000025)
    .ARM.Collect$$libinit$$0000002C          0x080061f8   Section        0  libinit2.o(.ARM.Collect$$libinit$$0000002C)
    .ARM.Collect$$libinit$$0000002E          0x080061f8   Section        0  libinit2.o(.ARM.Collect$$libinit$$0000002E)
    .ARM.Collect$$libinit$$00000030          0x080061f8   Section        0  libinit2.o(.ARM.Collect$$libinit$$00000030)
    .ARM.Collect$$libinit$$00000032          0x080061f8   Section        0  libinit2.o(.ARM.Collect$$libinit$$00000032)
    .ARM.Collect$$libinit$$00000033          0x080061f8   Section        2  libinit2.o(.ARM.Collect$$libinit$$00000033)
    .ARM.Collect$$libshutdown$$00000000      0x080061fa   Section        2  libshutdown.o(.ARM.Collect$$libshutdown$$00000000)
    .ARM.Collect$$libshutdown$$00000002      0x080061fc   Section        0  libshutdown2.o(.ARM.Collect$$libshutdown$$00000002)
    .ARM.Collect$$libshutdown$$00000004      0x080061fc   Section        0  libshutdown2.o(.ARM.Collect$$libshutdown$$00000004)
    .ARM.Collect$$libshutdown$$00000007      0x080061fc   Section        0  libshutdown2.o(.ARM.Collect$$libshutdown$$00000007)
    .ARM.Collect$$libshutdown$$0000000A      0x080061fc   Section        0  libshutdown2.o(.ARM.Collect$$libshutdown$$0000000A)
    .ARM.Collect$$libshutdown$$0000000C      0x080061fc   Section        0  libshutdown2.o(.ARM.Collect$$libshutdown$$0000000C)
    .ARM.Collect$$libshutdown$$0000000F      0x080061fc   Section        0  libshutdown2.o(.ARM.Collect$$libshutdown$$0000000F)
    .ARM.Collect$$libshutdown$$00000010      0x080061fc   Section        2  libshutdown2.o(.ARM.Collect$$libshutdown$$00000010)
    .ARM.Collect$$rtentry$$00000000          0x080061fe   Section        0  __rtentry.o(.ARM.Collect$$rtentry$$00000000)
    .ARM.Collect$$rtentry$$00000002          0x080061fe   Section        0  __rtentry2.o(.ARM.Collect$$rtentry$$00000002)
    .ARM.Collect$$rtentry$$00000004          0x080061fe   Section        6  __rtentry4.o(.ARM.Collect$$rtentry$$00000004)
    .ARM.Collect$$rtentry$$00000009          0x08006204   Section        0  __rtentry2.o(.ARM.Collect$$rtentry$$00000009)
    .ARM.Collect$$rtentry$$0000000A          0x08006204   Section        4  __rtentry2.o(.ARM.Collect$$rtentry$$0000000A)
    .ARM.Collect$$rtentry$$0000000C          0x08006208   Section        0  __rtentry2.o(.ARM.Collect$$rtentry$$0000000C)
    .ARM.Collect$$rtentry$$0000000D          0x08006208   Section        8  __rtentry2.o(.ARM.Collect$$rtentry$$0000000D)
    .ARM.Collect$$rtexit$$00000000           0x08006210   Section        2  rtexit.o(.ARM.Collect$$rtexit$$00000000)
    .ARM.Collect$$rtexit$$00000002           0x08006212   Section        0  rtexit2.o(.ARM.Collect$$rtexit$$00000002)
    .ARM.Collect$$rtexit$$00000003           0x08006212   Section        4  rtexit2.o(.ARM.Collect$$rtexit$$00000003)
    .ARM.Collect$$rtexit$$00000004           0x08006216   Section        6  rtexit2.o(.ARM.Collect$$rtexit$$00000004)
    .emb_text                                0x0800621c   Section        6  sys.o(.emb_text)
    .text                                    0x08006224   Section        0  main.o(.text)
    .text                                    0x0800649c   Section        0  stm32f10x_it.o(.text)
    .text                                    0x080064b8   Section        0  system_stm32f10x.o(.text)
    SetSysClockTo72                          0x080064b9   Thumb Code   214  system_stm32f10x.o(.text)
    SetSysClock                              0x0800658f   Thumb Code     8  system_stm32f10x.o(.text)
    .text                                    0x08006698   Section        0  led.o(.text)
    .text                                    0x080066cc   Section        0  beep.o(.text)
    .text                                    0x08006700   Section        0  timer.o(.text)
    .text                                    0x08006964   Section        0  myiic.o(.text)
    .text                                    0x08006bd0   Section        0  relay.o(.text)
    .text                                    0x08006c28   Section        0  w25qxx.o(.text)
    .text                                    0x08006ffc   Section        0  spi.o(.text)
    .text                                    0x080070dc   Section        0  wdg.o(.text)
    .text                                    0x08007108   Section        0  sysrest.o(.text)
    .text                                    0x0800713c   Section        0  24cxx.o(.text)
    .text                                    0x0800731c   Section        0  rs485.o(.text)
    .text                                    0x080073b4   Section        0  wg1.o(.text)
    CheckWG1Data                             0x080074f5   Thumb Code    66  wg1.o(.text)
    .text                                    0x080075d4   Section        0  wg2.o(.text)
    CheckWG2Data                             0x08007715   Thumb Code    66  wg2.o(.text)
    .text                                    0x080077f4   Section        0  24cxx_2.o(.text)
    .text                                    0x080079d4   Section        0  myiic_2.o(.text)
    .text                                    0x08007c40   Section        0  ec20.o(.text)
    QuectelEC20_SendCmd                      0x08007d03   Thumb Code    52  ec20.o(.text)
    GetAckData                               0x08007d37   Thumb Code    92  ec20.o(.text)
    ExpectReceData                           0x08007d93   Thumb Code   346  ec20.o(.text)
    .text                                    0x080085ac   Section        0  volume.o(.text)
    .text                                    0x08008638   Section        0  stmflash.o(.text)
    .text                                    0x08008824   Section        0  delay.o(.text)
    .text                                    0x080088f8   Section        0  usart.o(.text)
    .text                                    0x08008c98   Section       64  startup_stm32f10x_hd.o(.text)
    .text                                    0x08008cd8   Section        0  misc.o(.text)
    .text                                    0x08008db4   Section        0  stm32f10x_gpio.o(.text)
    .text                                    0x08009110   Section        0  stm32f10x_rcc.o(.text)
    .text                                    0x080094b4   Section        0  stm32f10x_usart.o(.text)
    .text                                    0x080098bc   Section        0  stm32f10x_tim.o(.text)
    TI4_Config                               0x08009d63   Thumb Code   130  stm32f10x_tim.o(.text)
    TI3_Config                               0x08009df7   Thumb Code   122  stm32f10x_tim.o(.text)
    TI2_Config                               0x08009e8b   Thumb Code   130  stm32f10x_tim.o(.text)
    TI1_Config                               0x08009f1f   Thumb Code   108  stm32f10x_tim.o(.text)
    .text                                    0x0800a6d8   Section        0  stm32f10x_exti.o(.text)
    .text                                    0x0800a7f4   Section        0  stm32f10x_flash.o(.text)
    .text                                    0x0800adb0   Section        0  stm32f10x_iwdg.o(.text)
    .text                                    0x0800adf0   Section        0  stm32f10x_spi.o(.text)
    .text                                    0x0800b0fc   Section        0  rc522_config.o(.text)
    RC522_SPI_Config                         0x0800b0fd   Thumb Code   170  rc522_config.o(.text)
    .text                                    0x0800b22c   Section        0  rc522_function.o(.text)
    .text                                    0x0800b90c   Section        0  ds1302.o(.text)
    .text                                    0x0800bd28   Section        0  sysvar.o(.text)
    .text                                    0x0800bfe8   Section        0  keyfun.o(.text)
    .text                                    0x0800c3cc   Section        0  syscomm.o(.text)
    .text                                    0x0800c7dc   Section        0  comcmd.o(.text)
    .text                                    0x0800e528   Section        0  name.o(.text)
    .text                                    0x0800e91c   Section        0  cardprocess.o(.text)
    .text                                    0x0800eeb8   Section        0  pass.o(.text)
    .text                                    0x0800ef40   Section        0  default.o(.text)
    .text                                    0x0800eff0   Section        0  record.o(.text)
    .text                                    0x0800f6c0   Section        0  mach.o(.text)
    .text                                    0x0800f70c   Section        0  cardrw.o(.text)
    .text                                    0x0800f984   Section        0  blackname.o(.text)
    .text                                    0x0800fd30   Section        0  interval.o(.text)
    .text                                    0x0800ff84   Section        0  ec20fun.o(.text)
    .text                                    0x08010134   Section        0  qr_code.o(.text)
    .text                                    0x08010384   Section        0  speak.o(.text)
    .text                                    0x08010504   Section        0  heartbeat.o(.text)
    .text                                    0x080105a0   Section        0  lcd12864.o(.text)
    .text                                    0x08010898   Section        0  lcd12864_config.o(.text)
    .text                                    0x080110d4   Section        0  upload.o(.text)
    .text                                    0x0801133c   Section        0  tm1650.o(.text)
    .text                                    0x08011678   Section        0  consum_config.o(.text)
    .text                                    0x080117c0   Section        0  iap_updata.o(.text)
    .text                                    0x08011a48   Section        0  menu.o(.text)
    .text                                    0x08012dc0   Section        0  menufun.o(.text)
    .text                                    0x08012ff8   Section        0  w5500.o(.text)
    .text                                    0x08013b50   Section        0  w5500_config.o(.text)
    .text                                    0x08013fec   Section        0  rj45cmd.o(.text)
    .text                                    0x08014378   Section        0  lcd_dis.o(.text)
    .text                                    0x08014960   Section        0  lcd_config.o(.text)
    .text                                    0x080176cc   Section        0  crc.o(.text)
    .text                                    0x08017778   Section        0  iap.o(.text)
    .text                                    0x0801780c   Section        2  use_no_semi_2.o(.text)
    .text                                    0x0801780e   Section        0  toupper.o(.text)
    .text                                    0x0801782c   Section        0  strstr.o(.text)
    .text                                    0x08017850   Section      138  rt_memcpy_v6.o(.text)
    .text                                    0x080178da   Section      100  rt_memcpy_w.o(.text)
    .text                                    0x0801793e   Section       68  rt_memclr.o(.text)
    .text                                    0x08017982   Section       78  rt_memclr_w.o(.text)
    .text                                    0x080179d0   Section        0  heapauxi.o(.text)
    .text                                    0x080179d6   Section        2  use_no_semi.o(.text)
    .text                                    0x080179d8   Section       16  rt_ctype_table.o(.text)
    .text                                    0x080179e8   Section        8  rt_locale_intlibspace.o(.text)
    .text                                    0x080179f0   Section        8  libspace.o(.text)
    .text                                    0x080179f8   Section       74  sys_stackheap_outer.o(.text)
    .text                                    0x08017a42   Section        0  exit.o(.text)
    .text                                    0x08017a54   Section      128  strcmpv7m.o(.text)
    locale$$code                             0x08017ad4   Section       44  lc_ctype_c.o(locale$$code)
    .constdata                               0x08017b00   Section      170  ec20.o(.constdata)
    AT_AT                                    0x08017b00   Data           5  ec20.o(.constdata)
    AT_ATE0                                  0x08017b05   Data           7  ec20.o(.constdata)
    AT_QPOWD                                 0x08017b0c   Data          13  ec20.o(.constdata)
    AT_CPIN                                  0x08017b19   Data          12  ec20.o(.constdata)
    AT_CREG_C                                0x08017b25   Data          11  ec20.o(.constdata)
    AT_CGREG_C                               0x08017b30   Data          12  ec20.o(.constdata)
    AT_QICLOSE                               0x08017b3c   Data          15  ec20.o(.constdata)
    AT_QGPS                                  0x08017b4b   Data          12  ec20.o(.constdata)
    AT_QGPSCFG                               0x08017b57   Data          35  ec20.o(.constdata)
    AT_QGPSLOC                               0x08017b7a   Data          15  ec20.o(.constdata)
    AT_QGPSEND                               0x08017b89   Data          13  ec20.o(.constdata)
    AT_CGSN                                  0x08017b96   Data          10  ec20.o(.constdata)
    AT_CIMI                                  0x08017ba0   Data          10  ec20.o(.constdata)
    .constdata                               0x08017bac   Section       10  volume.o(.constdata)
    .constdata                               0x08017bb8   Section       14  comcmd.o(.constdata)
    .constdata                               0x08017bc8   Section        4  speak.o(.constdata)
    .constdata                               0x08017bcc   Section       74  lcd12864_config.o(.constdata)
    .constdata                               0x08017c18   Section        4  iap_updata.o(.constdata)
    .constdata                               0x08017c1c   Section        4  rj45cmd.o(.constdata)
    .constdata                               0x08017c20   Section      152  lcd_config.o(.constdata)
    .constdata                               0x08017cb8   Section      512  crc.o(.constdata)
    locale$$data                             0x08017ed8   Section      272  lc_ctype_c.o(locale$$data)
    __lcctype_c_name                         0x08017edc   Data           2  lc_ctype_c.o(locale$$data)
    __lcctype_c_start                        0x08017ee4   Data           0  lc_ctype_c.o(locale$$data)
    __lcctype_c_end                          0x08017fe8   Data           0  lc_ctype_c.o(locale$$data)
    .data                                    0x20000000   Section       20  system_stm32f10x.o(.data)
    .data                                    0x20000014   Section        6  timer.o(.data)
    Debit_money                              0x20000014   Data           4  timer.o(.data)
    .data                                    0x2000001c   Section       12  wg1.o(.data)
    Debit_money                              0x2000001c   Data           4  wg1.o(.data)
    bwg1                                     0x20000024   Data           4  wg1.o(.data)
    .data                                    0x20000028   Section       12  wg2.o(.data)
    Debit_money                              0x20000028   Data           4  wg2.o(.data)
    bwg2                                     0x20000030   Data           4  wg2.o(.data)
    .data                                    0x20000034   Section       66  ec20.o(.data)
    Debit_money                              0x20000034   Data           4  ec20.o(.data)
    s_u8RxIndexR                             0x20000072   Data           2  ec20.o(.data)
    .data                                    0x20000076   Section        4  delay.o(.data)
    fac_us                                   0x20000076   Data           1  delay.o(.data)
    fac_ms                                   0x20000078   Data           2  delay.o(.data)
    .data                                    0x2000007c   Section       13  usart.o(.data)
    Debit_money                              0x2000007c   Data           4  usart.o(.data)
    k                                        0x20000087   Data           1  usart.o(.data)
    k                                        0x20000088   Data           1  usart.o(.data)
    .data                                    0x20000089   Section       20  stm32f10x_rcc.o(.data)
    APBAHBPrescTable                         0x20000089   Data          16  stm32f10x_rcc.o(.data)
    ADCPrescTable                            0x20000099   Data           4  stm32f10x_rcc.o(.data)
    .data                                    0x200000a0   Section       20  ds1302.o(.data)
    Debit_money                              0x200000a0   Data           4  ds1302.o(.data)
    .data                                    0x200000b4   Section       80  sysvar.o(.data)
    Debit_money                              0x200000b4   Data           4  sysvar.o(.data)
    .data                                    0x20000104   Section       20  keyfun.o(.data)
    Debit_money                              0x20000104   Data           4  keyfun.o(.data)
    .data                                    0x20000118   Section       71  comcmd.o(.data)
    Debit_money                              0x20000118   Data           4  comcmd.o(.data)
    .data                                    0x20000160   Section       40  name.o(.data)
    Debit_money                              0x20000160   Data           4  name.o(.data)
    .data                                    0x20000188   Section       50  cardprocess.o(.data)
    Debit_money                              0x20000188   Data           4  cardprocess.o(.data)
    .data                                    0x200001bc   Section       47  default.o(.data)
    Debit_money                              0x200001bc   Data           4  default.o(.data)
    .data                                    0x200001ec   Section       62  record.o(.data)
    Debit_money                              0x200001ec   Data           4  record.o(.data)
    .data                                    0x2000022c   Section       16  mach.o(.data)
    Debit_money                              0x2000022c   Data           4  mach.o(.data)
    .data                                    0x2000023c   Section      180  cardrw.o(.data)
    Debit_money                              0x2000023c   Data           4  cardrw.o(.data)
    .data                                    0x200002f0   Section       32  blackname.o(.data)
    Debit_money                              0x200002f0   Data           4  blackname.o(.data)
    back_bgroupfull                          0x200002f4   Data           4  blackname.o(.data)
    .data                                    0x20000310   Section       36  interval.o(.data)
    Debit_money                              0x20000310   Data           4  interval.o(.data)
    .data                                    0x20000334   Section        8  ec20fun.o(.data)
    Debit_money                              0x20000334   Data           4  ec20fun.o(.data)
    .data                                    0x2000033c   Section       28  qr_code.o(.data)
    Debit_money                              0x2000033c   Data           4  qr_code.o(.data)
    .data                                    0x20000358   Section        8  speak.o(.data)
    Debit_money                              0x20000358   Data           4  speak.o(.data)
    .data                                    0x20000360   Section       12  heartbeat.o(.data)
    Debit_money                              0x20000360   Data           4  heartbeat.o(.data)
    .data                                    0x2000036c   Section       28  lcd12864_config.o(.data)
    Debit_money                              0x2000036c   Data           4  lcd12864_config.o(.data)
    .data                                    0x20000388   Section       31  upload.o(.data)
    Debit_money                              0x20000388   Data           4  upload.o(.data)
    .data                                    0x200003a8   Section        6  tm1650.o(.data)
    Debit_money                              0x200003a8   Data           4  tm1650.o(.data)
    oldkey                                   0x200003ac   Data           2  tm1650.o(.data)
    .data                                    0x200003b0   Section       29  consum_config.o(.data)
    Debit_money                              0x200003b0   Data           4  consum_config.o(.data)
    .data                                    0x200003d0   Section       24  iap_updata.o(.data)
    Debit_money                              0x200003d0   Data           4  iap_updata.o(.data)
    .data                                    0x200003e8   Section     2448  menu.o(.data)
    Debit_money                              0x200003e8   Data           4  menu.o(.data)
    .data                                    0x20000d78   Section     2583  menufun.o(.data)
    Debit_money                              0x20000d78   Data           4  menufun.o(.data)
    .data                                    0x2000178f   Section       50  w5500.o(.data)
    .data                                    0x200017c4   Section       12  w5500_config.o(.data)
    Debit_money                              0x200017c4   Data           4  w5500_config.o(.data)
    .data                                    0x200017d0   Section       19  lcd_config.o(.data)
    Debit_money                              0x200017d0   Data           4  lcd_config.o(.data)
    .data                                    0x200017e3   Section        2  crc.o(.data)
    .data                                    0x200017e8   Section        4  iap.o(.data)
    .bss                                     0x200017ec   Section     4096  w25qxx.o(.bss)
    .bss                                     0x200027ec   Section       18  spi.o(.bss)
    .bss                                     0x200027fe   Section       34  wg1.o(.bss)
    .bss                                     0x20002820   Section       34  wg2.o(.bss)
    .bss                                     0x20002842   Section     2588  ec20.o(.bss)
    .bss                                     0x2000325e   Section     2048  stmflash.o(.bss)
    .bss                                     0x20003a5e   Section       22  sysvar.o(.bss)
    .bss                                     0x20003a74   Section      106  keyfun.o(.bss)
    .bss                                     0x20003ade   Section     4096  comcmd.o(.bss)
    .bss                                     0x20004ade   Section       64  cardprocess.o(.bss)
    .bss                                     0x20004b1e   Section      342  record.o(.bss)
    .bss                                     0x20004c74   Section      104  interval.o(.bss)
    .bss                                     0x20004cdc   Section       27  ec20fun.o(.bss)
    .bss                                     0x20004cf7   Section       70  qr_code.o(.bss)
    .bss                                     0x20004d3d   Section       16  lcd12864_config.o(.bss)
    .bss                                     0x20004d4d   Section       30  upload.o(.bss)
    .bss                                     0x20004d6b   Section       66  consum_config.o(.bss)
    .bss                                     0x20004db0   Section     1024  iap_updata.o(.bss)
    .bss                                     0x200051b0   Section     8392  w5500.o(.bss)
    .bss                                     0x20007278   Section     4146  rj45cmd.o(.bss)
    .bss                                     0x200082aa   Section      280  lcd_config.o(.bss)
    .bss                                     0x200083c2   Section     2048  iap.o(.bss)
    .bss                                     0x20008bc4   Section       96  libspace.o(.bss)
    HEAP                                     0x20008c28   Section      512  startup_stm32f10x_hd.o(HEAP)
    Heap_Mem                                 0x20008c28   Data         512  startup_stm32f10x_hd.o(HEAP)
    STACK                                    0x20008e28   Section     1024  startup_stm32f10x_hd.o(STACK)
    Stack_Mem                                0x20008e28   Data        1024  startup_stm32f10x_hd.o(STACK)
    __initial_sp                             0x20009228   Data           0  startup_stm32f10x_hd.o(STACK)

    Global Symbols

    Symbol Name                              Value     Ov Type        Size  Object(Section)

    BuildAttributes$$THM_ISAv4$P$D$K$B$S$PE$A:L22UL41UL21$X:L11$S22US41US21$IEEE1$IW$USESV6$~STKCKD$USESV7$~SHL$OSPACE$ROPI$EBA8$UX$STANDARDLIB$REQ8$PRES8$EABIv2 0x00000000   Number         0  anon$$obj.o ABSOLUTE
    __ARM_use_no_argv                        0x00000000   Number         0  main.o ABSOLUTE
    __ARM_exceptions_init                     - Undefined Weak Reference
    __alloca_initialize                       - Undefined Weak Reference
    __arm_preinit_                            - Undefined Weak Reference
    __cpp_initialize__aeabi_                  - Undefined Weak Reference
    __cxa_finalize                            - Undefined Weak Reference
    __sigvec_lookup                           - Undefined Weak Reference
    _atexit_init                              - Undefined Weak Reference
    _call_atexit_fns                          - Undefined Weak Reference
    _clock_init                               - Undefined Weak Reference
    _fp_trap_init                             - Undefined Weak Reference
    _fp_trap_shutdown                         - Undefined Weak Reference
    _get_lc_collate                           - Undefined Weak Reference
    _get_lc_monetary                          - Undefined Weak Reference
    _get_lc_numeric                           - Undefined Weak Reference
    _get_lc_time                              - Undefined Weak Reference
    _getenv_init                              - Undefined Weak Reference
    _handle_redirection                       - Undefined Weak Reference
    _init_alloc                               - Undefined Weak Reference
    _init_user_alloc                          - Undefined Weak Reference
    _initio                                   - Undefined Weak Reference
    _rand_init                                - Undefined Weak Reference
    _signal_finish                            - Undefined Weak Reference
    _signal_init                              - Undefined Weak Reference
    _terminate_alloc                          - Undefined Weak Reference
    _terminate_user_alloc                     - Undefined Weak Reference
    _terminateio                              - Undefined Weak Reference
    __Vectors_Size                           0x00000130   Number         0  startup_stm32f10x_hd.o ABSOLUTE
    __Vectors                                0x08006000   Data           4  startup_stm32f10x_hd.o(RESET)
    __Vectors_End                            0x08006130   Data           0  startup_stm32f10x_hd.o(RESET)
    __main                                   0x08006131   Thumb Code     8  __main.o(!!!main)
    __scatterload                            0x08006139   Thumb Code     0  __scatter.o(!!!scatter)
    __scatterload_rt2                        0x08006139   Thumb Code    44  __scatter.o(!!!scatter)
    __scatterload_rt2_thumb_only             0x08006139   Thumb Code     0  __scatter.o(!!!scatter)
    __scatterload_null                       0x08006147   Thumb Code     0  __scatter.o(!!!scatter)
    __decompress                             0x0800616d   Thumb Code    90  __dczerorl2.o(!!dczerorl2)
    __decompress1                            0x0800616d   Thumb Code     0  __dczerorl2.o(!!dczerorl2)
    __scatterload_zeroinit                   0x080061c9   Thumb Code    28  __scatter_zi.o(!!handler_zi)
    __rt_lib_init                            0x080061e5   Thumb Code     0  libinit.o(.ARM.Collect$$libinit$$00000000)
    __rt_lib_init_fp_1                       0x080061e7   Thumb Code     0  libinit2.o(.ARM.Collect$$libinit$$00000002)
    __rt_lib_init_heap_1                     0x080061e7   Thumb Code     0  libinit2.o(.ARM.Collect$$libinit$$0000000A)
    __rt_lib_init_lc_common                  0x080061e7   Thumb Code     0  libinit2.o(.ARM.Collect$$libinit$$0000000F)
    __rt_lib_init_preinit_1                  0x080061e7   Thumb Code     0  libinit2.o(.ARM.Collect$$libinit$$00000004)
    __rt_lib_init_rand_1                     0x080061e7   Thumb Code     0  libinit2.o(.ARM.Collect$$libinit$$0000000E)
    __rt_lib_init_user_alloc_1               0x080061e7   Thumb Code     0  libinit2.o(.ARM.Collect$$libinit$$0000000C)
    __rt_lib_init_lc_collate_1               0x080061ed   Thumb Code     0  libinit2.o(.ARM.Collect$$libinit$$00000011)
    __rt_lib_init_lc_ctype_2                 0x080061ed   Thumb Code     0  libinit2.o(.ARM.Collect$$libinit$$00000012)
    __rt_lib_init_alloca_1                   0x080061f9   Thumb Code     0  libinit2.o(.ARM.Collect$$libinit$$0000002E)
    __rt_lib_init_argv_1                     0x080061f9   Thumb Code     0  libinit2.o(.ARM.Collect$$libinit$$0000002C)
    __rt_lib_init_atexit_1                   0x080061f9   Thumb Code     0  libinit2.o(.ARM.Collect$$libinit$$0000001B)
    __rt_lib_init_clock_1                    0x080061f9   Thumb Code     0  libinit2.o(.ARM.Collect$$libinit$$00000021)
    __rt_lib_init_cpp_1                      0x080061f9   Thumb Code     0  libinit2.o(.ARM.Collect$$libinit$$00000032)
    __rt_lib_init_exceptions_1               0x080061f9   Thumb Code     0  libinit2.o(.ARM.Collect$$libinit$$00000030)
    __rt_lib_init_fp_trap_1                  0x080061f9   Thumb Code     0  libinit2.o(.ARM.Collect$$libinit$$0000001F)
    __rt_lib_init_getenv_1                   0x080061f9   Thumb Code     0  libinit2.o(.ARM.Collect$$libinit$$00000023)
    __rt_lib_init_lc_ctype_1                 0x080061f9   Thumb Code     0  libinit2.o(.ARM.Collect$$libinit$$00000013)
    __rt_lib_init_lc_monetary_1              0x080061f9   Thumb Code     0  libinit2.o(.ARM.Collect$$libinit$$00000015)
    __rt_lib_init_lc_numeric_1               0x080061f9   Thumb Code     0  libinit2.o(.ARM.Collect$$libinit$$00000017)
    __rt_lib_init_lc_time_1                  0x080061f9   Thumb Code     0  libinit2.o(.ARM.Collect$$libinit$$00000019)
    __rt_lib_init_return                     0x080061f9   Thumb Code     0  libinit2.o(.ARM.Collect$$libinit$$00000033)
    __rt_lib_init_signal_1                   0x080061f9   Thumb Code     0  libinit2.o(.ARM.Collect$$libinit$$0000001D)
    __rt_lib_init_stdio_1                    0x080061f9   Thumb Code     0  libinit2.o(.ARM.Collect$$libinit$$00000025)
    __rt_lib_shutdown                        0x080061fb   Thumb Code     0  libshutdown.o(.ARM.Collect$$libshutdown$$00000000)
    __rt_lib_shutdown_cpp_1                  0x080061fd   Thumb Code     0  libshutdown2.o(.ARM.Collect$$libshutdown$$00000002)
    __rt_lib_shutdown_fp_trap_1              0x080061fd   Thumb Code     0  libshutdown2.o(.ARM.Collect$$libshutdown$$00000007)
    __rt_lib_shutdown_heap_1                 0x080061fd   Thumb Code     0  libshutdown2.o(.ARM.Collect$$libshutdown$$0000000F)
    __rt_lib_shutdown_return                 0x080061fd   Thumb Code     0  libshutdown2.o(.ARM.Collect$$libshutdown$$00000010)
    __rt_lib_shutdown_signal_1               0x080061fd   Thumb Code     0  libshutdown2.o(.ARM.Collect$$libshutdown$$0000000A)
    __rt_lib_shutdown_stdio_1                0x080061fd   Thumb Code     0  libshutdown2.o(.ARM.Collect$$libshutdown$$00000004)
    __rt_lib_shutdown_user_alloc_1           0x080061fd   Thumb Code     0  libshutdown2.o(.ARM.Collect$$libshutdown$$0000000C)
    __rt_entry                               0x080061ff   Thumb Code     0  __rtentry.o(.ARM.Collect$$rtentry$$00000000)
    __rt_entry_presh_1                       0x080061ff   Thumb Code     0  __rtentry2.o(.ARM.Collect$$rtentry$$00000002)
    __rt_entry_sh                            0x080061ff   Thumb Code     0  __rtentry4.o(.ARM.Collect$$rtentry$$00000004)
    __rt_entry_li                            0x08006205   Thumb Code     0  __rtentry2.o(.ARM.Collect$$rtentry$$0000000A)
    __rt_entry_postsh_1                      0x08006205   Thumb Code     0  __rtentry2.o(.ARM.Collect$$rtentry$$00000009)
    __rt_entry_main                          0x08006209   Thumb Code     0  __rtentry2.o(.ARM.Collect$$rtentry$$0000000D)
    __rt_entry_postli_1                      0x08006209   Thumb Code     0  __rtentry2.o(.ARM.Collect$$rtentry$$0000000C)
    __rt_exit                                0x08006211   Thumb Code     0  rtexit.o(.ARM.Collect$$rtexit$$00000000)
    __rt_exit_ls                             0x08006213   Thumb Code     0  rtexit2.o(.ARM.Collect$$rtexit$$00000003)
    __rt_exit_prels_1                        0x08006213   Thumb Code     0  rtexit2.o(.ARM.Collect$$rtexit$$00000002)
    __rt_exit_exit                           0x08006217   Thumb Code     0  rtexit2.o(.ARM.Collect$$rtexit$$00000004)
    MSR_MSP                                  0x0800621d   Thumb Code     6  sys.o(.emb_text)
    InitSystemHardware                       0x08006225   Thumb Code   184  main.o(.text)
    Hardware_SelfTest                        0x080062dd   Thumb Code     8  main.o(.text)
    InitSystemParameter                      0x080062e5   Thumb Code   112  main.o(.text)
    main                                     0x08006355   Thumb Code   284  main.o(.text)
    NMI_Handler                              0x0800649d   Thumb Code     2  stm32f10x_it.o(.text)
    HardFault_Handler                        0x0800649f   Thumb Code     4  stm32f10x_it.o(.text)
    MemManage_Handler                        0x080064a3   Thumb Code     4  stm32f10x_it.o(.text)
    BusFault_Handler                         0x080064a7   Thumb Code     4  stm32f10x_it.o(.text)
    UsageFault_Handler                       0x080064ab   Thumb Code     4  stm32f10x_it.o(.text)
    SVC_Handler                              0x080064af   Thumb Code     2  stm32f10x_it.o(.text)
    DebugMon_Handler                         0x080064b1   Thumb Code     2  stm32f10x_it.o(.text)
    PendSV_Handler                           0x080064b3   Thumb Code     2  stm32f10x_it.o(.text)
    SysTick_Handler                          0x080064b5   Thumb Code     2  stm32f10x_it.o(.text)
    SystemInit                               0x08006597   Thumb Code    78  system_stm32f10x.o(.text)
    SystemCoreClockUpdate                    0x080065e5   Thumb Code   142  system_stm32f10x.o(.text)
    LED_Init                                 0x08006699   Thumb Code    46  led.o(.text)
    BEEP_Init                                0x080066cd   Thumb Code    46  beep.o(.text)
    TIM3_Int_Init                            0x08006701   Thumb Code    90  timer.o(.text)
    TIM7_Int_Init                            0x0800675b   Thumb Code    90  timer.o(.text)
    TIM2_NVIC_Configuration                  0x080067b5   Thumb Code    42  timer.o(.text)
    TIM3_IRQHandler                          0x080067df   Thumb Code   260  timer.o(.text)
    TIM7_IRQHandler                          0x080068e3   Thumb Code    22  timer.o(.text)
    timedelay_s                              0x080068f9   Thumb Code    16  timer.o(.text)
    IIC_Init                                 0x08006965   Thumb Code    46  myiic.o(.text)
    IIC_Start                                0x08006993   Thumb Code    64  myiic.o(.text)
    IIC_Stop                                 0x080069d3   Thumb Code    66  myiic.o(.text)
    IIC_Wait_Ack                             0x08006a15   Thumb Code    86  myiic.o(.text)
    IIC_Ack                                  0x08006a6b   Thumb Code    70  myiic.o(.text)
    IIC_NAck                                 0x08006ab1   Thumb Code    70  myiic.o(.text)
    IIC_Send_Byte                            0x08006af7   Thumb Code   104  myiic.o(.text)
    IIC_Read_Byte                            0x08006b5f   Thumb Code   100  myiic.o(.text)
    RELAY_Init                               0x08006bd1   Thumb Code    78  relay.o(.text)
    SPI_FLASH_Write_SR                       0x08006c29   Thumb Code    32  w25qxx.o(.text)
    SPI_Flash_Init                           0x08006c49   Thumb Code    60  w25qxx.o(.text)
    SPI_Flash_ReadSR                         0x08006c85   Thumb Code    36  w25qxx.o(.text)
    SPI_FLASH_Write_Enable                   0x08006ca9   Thumb Code    24  w25qxx.o(.text)
    SPI_FLASH_Write_Disable                  0x08006cc1   Thumb Code    24  w25qxx.o(.text)
    SPI_Flash_ReadID                         0x08006cd9   Thumb Code    64  w25qxx.o(.text)
    SPI_Flash_Read                           0x08006d19   Thumb Code    74  w25qxx.o(.text)
    W25X_Read_Page                           0x08006d63   Thumb Code    88  w25qxx.o(.text)
    SPI_Flash_Wait_Busy                      0x08006dbb   Thumb Code    18  w25qxx.o(.text)
    SPI_Flash_Write_Page                     0x08006dcd   Thumb Code    80  w25qxx.o(.text)
    SPI_Flash_Write_NoCheck                  0x08006e1d   Thumb Code    70  w25qxx.o(.text)
    SPI_Flash_Erase_Sector                   0x08006e63   Thumb Code    62  w25qxx.o(.text)
    SPI_Flash_Write                          0x08006ea1   Thumb Code   176  w25qxx.o(.text)
    SPI_Flash_Erase_Chip                     0x08006f51   Thumb Code    36  w25qxx.o(.text)
    SPI_Flash_Erase_Sector_1                 0x08006f75   Thumb Code    60  w25qxx.o(.text)
    SPI_Flash_PowerDown                      0x08006fb1   Thumb Code    30  w25qxx.o(.text)
    SPI_Flash_WAKEUP                         0x08006fcf   Thumb Code    30  w25qxx.o(.text)
    SPI1_ReadWriteByte                       0x08006ffd   Thumb Code    78  spi.o(.text)
    SPI1_Init                                0x0800704b   Thumb Code   108  spi.o(.text)
    SPI1_SetSpeed                            0x080070b7   Thumb Code    26  spi.o(.text)
    IWDG_Init                                0x080070dd   Thumb Code    36  wdg.o(.text)
    IWDG_Feed                                0x08007101   Thumb Code     8  wdg.o(.text)
    SYSREST_KEY_Init                         0x08007109   Thumb Code    46  sysrest.o(.text)
    AT24CXX_Init                             0x0800713d   Thumb Code     8  24cxx.o(.text)
    AT24CXX_ReadOneByte                      0x08007145   Thumb Code    84  24cxx.o(.text)
    AT24CXX_WriteOneByte                     0x08007199   Thumb Code    76  24cxx.o(.text)
    AT24CXX_Write                            0x080071e5   Thumb Code    82  24cxx.o(.text)
    AT24CXX_WriteLenByte                     0x08007237   Thumb Code    42  24cxx.o(.text)
    AT24CXX_ReadLenByte                      0x08007261   Thumb Code    44  24cxx.o(.text)
    AT24CXX_Check                            0x0800728d   Thumb Code    52  24cxx.o(.text)
    AT24CXX_Read                             0x080072c1   Thumb Code    34  24cxx.o(.text)
    AT24CXX_Write1                           0x080072e3   Thumb Code    36  24cxx.o(.text)
    AT24C256Check                            0x08007307   Thumb Code    20  24cxx.o(.text)
    RS485_Init                               0x0800731d   Thumb Code    44  rs485.o(.text)
    RS485_Send_Data                          0x08007349   Thumb Code    54  rs485.o(.text)
    RS485_Send_One_Data                      0x0800737f   Thumb Code    40  rs485.o(.text)
    EXTIX_Init_WG1                           0x080073b5   Thumb Code   136  wg1.o(.text)
    EXTI0_IRQHandler                         0x0800743d   Thumb Code    68  wg1.o(.text)
    EXTI1_IRQHandler                         0x08007481   Thumb Code    70  wg1.o(.text)
    InitWG1                                  0x080074c7   Thumb Code    46  wg1.o(.text)
    GetWG1Cardno                             0x08007537   Thumb Code    88  wg1.o(.text)
    ProcessWG1                               0x0800758f   Thumb Code    42  wg1.o(.text)
    EXTIX_Init_WG2                           0x080075d5   Thumb Code   136  wg2.o(.text)
    EXTI2_IRQHandler                         0x0800765d   Thumb Code    68  wg2.o(.text)
    EXTI3_IRQHandler                         0x080076a1   Thumb Code    70  wg2.o(.text)
    InitWG2                                  0x080076e7   Thumb Code    46  wg2.o(.text)
    GetWG2Cardno                             0x08007757   Thumb Code    88  wg2.o(.text)
    ProcessWG2                               0x080077af   Thumb Code    42  wg2.o(.text)
    AT24CXX_2_Init                           0x080077f5   Thumb Code     8  24cxx_2.o(.text)
    AT24CXX_2_ReadOneByte                    0x080077fd   Thumb Code    84  24cxx_2.o(.text)
    AT24CXX_2_WriteOneByte                   0x08007851   Thumb Code    76  24cxx_2.o(.text)
    AT24CXX_2_Write                          0x0800789d   Thumb Code    82  24cxx_2.o(.text)
    AT24CXX_2_WriteLenByte                   0x080078ef   Thumb Code    42  24cxx_2.o(.text)
    AT24CXX_2_ReadLenByte                    0x08007919   Thumb Code    44  24cxx_2.o(.text)
    AT24CXX_2_Check                          0x08007945   Thumb Code    52  24cxx_2.o(.text)
    AT24CXX_2_Read                           0x08007979   Thumb Code    34  24cxx_2.o(.text)
    AT24CXX_2_Write1                         0x0800799b   Thumb Code    36  24cxx_2.o(.text)
    AT24C256Check_2                          0x080079bf   Thumb Code    20  24cxx_2.o(.text)
    IIC_2_Init                               0x080079d5   Thumb Code    46  myiic_2.o(.text)
    IIC_2_Start                              0x08007a03   Thumb Code    64  myiic_2.o(.text)
    IIC_2_Stop                               0x08007a43   Thumb Code    66  myiic_2.o(.text)
    IIC_2_Wait_Ack                           0x08007a85   Thumb Code    86  myiic_2.o(.text)
    IIC_2_Ack                                0x08007adb   Thumb Code    70  myiic_2.o(.text)
    IIC_2_NAck                               0x08007b21   Thumb Code    70  myiic_2.o(.text)
    IIC_2_Send_Byte                          0x08007b67   Thumb Code   104  myiic_2.o(.text)
    IIC_2_Read_Byte                          0x08007bcf   Thumb Code   100  myiic_2.o(.text)
    EC20_REST_Init                           0x08007c41   Thumb Code    50  ec20.o(.text)
    EC20_SendString                          0x08007c73   Thumb Code    42  ec20.o(.text)
    EC20_SendByte                            0x08007c9d   Thumb Code    28  ec20.o(.text)
    InitEC20Combuff                          0x08007cb9   Thumb Code    32  ec20.o(.text)
    QuectelEC20_Rest                         0x08007cd9   Thumb Code    42  ec20.o(.text)
    ExpectReceData_1                         0x08007eed   Thumb Code   178  ec20.o(.text)
    QuectelEC20_PowerDown                    0x08007f9f   Thumb Code    28  ec20.o(.text)
    cleanEC20_bcrebuff                       0x08007fbb   Thumb Code    30  ec20.o(.text)
    QuectelEC20_AT                           0x08007fd9   Thumb Code    66  ec20.o(.text)
    QuectelEC20_ATE0                         0x0800801b   Thumb Code   152  ec20.o(.text)
    QuectelEC20_CPIN                         0x080080b3   Thumb Code    68  ec20.o(.text)
    QuectelEC20_CGSN                         0x080080f7   Thumb Code    92  ec20.o(.text)
    QuectelEC20_CIMI                         0x08008153   Thumb Code    92  ec20.o(.text)
    QuectelEC20_CREG                         0x080081af   Thumb Code    90  ec20.o(.text)
    QuectelEC20_CGREG                        0x08008209   Thumb Code    90  ec20.o(.text)
    QuectelEC20_QGPS                         0x08008263   Thumb Code    68  ec20.o(.text)
    QuectelEC20_QGPSCFG                      0x080082a7   Thumb Code    68  ec20.o(.text)
    QuectelEC20_QGPSLOC                      0x080082eb   Thumb Code    86  ec20.o(.text)
    QuectelEC20_QGPSEND                      0x08008341   Thumb Code    68  ec20.o(.text)
    QuectelEC20_QIOPEN                       0x08008385   Thumb Code    80  ec20.o(.text)
    QuectelEC20_QICLOSE                      0x080083d5   Thumb Code    68  ec20.o(.text)
    QuectelEC20_Network_Init                 0x08008419   Thumb Code   382  ec20.o(.text)
    ec20sufatest                             0x08008597   Thumb Code    14  ec20.o(.text)
    InitVolume                               0x080085ad   Thumb Code    18  volume.o(.text)
    SET_Volume                               0x080085bf   Thumb Code   110  volume.o(.text)
    STMFLASH_ReadHalfWord                    0x08008639   Thumb Code     6  stmflash.o(.text)
    STMFLASH_Write_NoCheck                   0x0800863f   Thumb Code    38  stmflash.o(.text)
    STMFLASH_Read                            0x08008665   Thumb Code    34  stmflash.o(.text)
    STMFLASH_Write                           0x08008687   Thumb Code   222  stmflash.o(.text)
    Test_Write                               0x08008765   Thumb Code    16  stmflash.o(.text)
    STMFLASH_Erase                           0x08008775   Thumb Code   168  stmflash.o(.text)
    delay_init                               0x08008825   Thumb Code    50  delay.o(.text)
    delay_us                                 0x08008857   Thumb Code    72  delay.o(.text)
    delay_ms                                 0x0800889f   Thumb Code    72  delay.o(.text)
    _sys_exit                                0x080088f9   Thumb Code     6  usart.o(.text)
    fputc                                    0x080088ff   Thumb Code    24  usart.o(.text)
    uart_init                                0x08008917   Thumb Code   162  usart.o(.text)
    uart2_init                               0x080089b9   Thumb Code   162  usart.o(.text)
    uart3_init                               0x08008a5b   Thumb Code   166  usart.o(.text)
    USART1_IRQHandler                        0x08008b01   Thumb Code   136  usart.o(.text)
    USART2_IRQHandler                        0x08008b89   Thumb Code    94  usart.o(.text)
    USART3_IRQHandler                        0x08008be7   Thumb Code   108  usart.o(.text)
    Reset_Handler                            0x08008c99   Thumb Code     8  startup_stm32f10x_hd.o(.text)
    ADC1_2_IRQHandler                        0x08008cb3   Thumb Code     0  startup_stm32f10x_hd.o(.text)
    ADC3_IRQHandler                          0x08008cb3   Thumb Code     0  startup_stm32f10x_hd.o(.text)
    CAN1_RX1_IRQHandler                      0x08008cb3   Thumb Code     0  startup_stm32f10x_hd.o(.text)
    CAN1_SCE_IRQHandler                      0x08008cb3   Thumb Code     0  startup_stm32f10x_hd.o(.text)
    DMA1_Channel1_IRQHandler                 0x08008cb3   Thumb Code     0  startup_stm32f10x_hd.o(.text)
    DMA1_Channel2_IRQHandler                 0x08008cb3   Thumb Code     0  startup_stm32f10x_hd.o(.text)
    DMA1_Channel3_IRQHandler                 0x08008cb3   Thumb Code     0  startup_stm32f10x_hd.o(.text)
    DMA1_Channel4_IRQHandler                 0x08008cb3   Thumb Code     0  startup_stm32f10x_hd.o(.text)
    DMA1_Channel5_IRQHandler                 0x08008cb3   Thumb Code     0  startup_stm32f10x_hd.o(.text)
    DMA1_Channel6_IRQHandler                 0x08008cb3   Thumb Code     0  startup_stm32f10x_hd.o(.text)
    DMA1_Channel7_IRQHandler                 0x08008cb3   Thumb Code     0  startup_stm32f10x_hd.o(.text)
    DMA2_Channel1_IRQHandler                 0x08008cb3   Thumb Code     0  startup_stm32f10x_hd.o(.text)
    DMA2_Channel2_IRQHandler                 0x08008cb3   Thumb Code     0  startup_stm32f10x_hd.o(.text)
    DMA2_Channel3_IRQHandler                 0x08008cb3   Thumb Code     0  startup_stm32f10x_hd.o(.text)
    DMA2_Channel4_5_IRQHandler               0x08008cb3   Thumb Code     0  startup_stm32f10x_hd.o(.text)
    EXTI15_10_IRQHandler                     0x08008cb3   Thumb Code     0  startup_stm32f10x_hd.o(.text)
    EXTI4_IRQHandler                         0x08008cb3   Thumb Code     0  startup_stm32f10x_hd.o(.text)
    FLASH_IRQHandler                         0x08008cb3   Thumb Code     0  startup_stm32f10x_hd.o(.text)
    FSMC_IRQHandler                          0x08008cb3   Thumb Code     0  startup_stm32f10x_hd.o(.text)
    I2C1_ER_IRQHandler                       0x08008cb3   Thumb Code     0  startup_stm32f10x_hd.o(.text)
    I2C1_EV_IRQHandler                       0x08008cb3   Thumb Code     0  startup_stm32f10x_hd.o(.text)
    I2C2_ER_IRQHandler                       0x08008cb3   Thumb Code     0  startup_stm32f10x_hd.o(.text)
    I2C2_EV_IRQHandler                       0x08008cb3   Thumb Code     0  startup_stm32f10x_hd.o(.text)
    PVD_IRQHandler                           0x08008cb3   Thumb Code     0  startup_stm32f10x_hd.o(.text)
    RCC_IRQHandler                           0x08008cb3   Thumb Code     0  startup_stm32f10x_hd.o(.text)
    RTCAlarm_IRQHandler                      0x08008cb3   Thumb Code     0  startup_stm32f10x_hd.o(.text)
    RTC_IRQHandler                           0x08008cb3   Thumb Code     0  startup_stm32f10x_hd.o(.text)
    SDIO_IRQHandler                          0x08008cb3   Thumb Code     0  startup_stm32f10x_hd.o(.text)
    SPI1_IRQHandler                          0x08008cb3   Thumb Code     0  startup_stm32f10x_hd.o(.text)
    SPI2_IRQHandler                          0x08008cb3   Thumb Code     0  startup_stm32f10x_hd.o(.text)
    SPI3_IRQHandler                          0x08008cb3   Thumb Code     0  startup_stm32f10x_hd.o(.text)
    TAMPER_IRQHandler                        0x08008cb3   Thumb Code     0  startup_stm32f10x_hd.o(.text)
    TIM1_BRK_IRQHandler                      0x08008cb3   Thumb Code     0  startup_stm32f10x_hd.o(.text)
    TIM1_CC_IRQHandler                       0x08008cb3   Thumb Code     0  startup_stm32f10x_hd.o(.text)
    TIM1_TRG_COM_IRQHandler                  0x08008cb3   Thumb Code     0  startup_stm32f10x_hd.o(.text)
    TIM1_UP_IRQHandler                       0x08008cb3   Thumb Code     0  startup_stm32f10x_hd.o(.text)
    TIM4_IRQHandler                          0x08008cb3   Thumb Code     0  startup_stm32f10x_hd.o(.text)
    TIM5_IRQHandler                          0x08008cb3   Thumb Code     0  startup_stm32f10x_hd.o(.text)
    TIM6_IRQHandler                          0x08008cb3   Thumb Code     0  startup_stm32f10x_hd.o(.text)
    TIM8_BRK_IRQHandler                      0x08008cb3   Thumb Code     0  startup_stm32f10x_hd.o(.text)
    TIM8_CC_IRQHandler                       0x08008cb3   Thumb Code     0  startup_stm32f10x_hd.o(.text)
    TIM8_TRG_COM_IRQHandler                  0x08008cb3   Thumb Code     0  startup_stm32f10x_hd.o(.text)
    TIM8_UP_IRQHandler                       0x08008cb3   Thumb Code     0  startup_stm32f10x_hd.o(.text)
    UART4_IRQHandler                         0x08008cb3   Thumb Code     0  startup_stm32f10x_hd.o(.text)
    UART5_IRQHandler                         0x08008cb3   Thumb Code     0  startup_stm32f10x_hd.o(.text)
    USBWakeUp_IRQHandler                     0x08008cb3   Thumb Code     0  startup_stm32f10x_hd.o(.text)
    USB_HP_CAN1_TX_IRQHandler                0x08008cb3   Thumb Code     0  startup_stm32f10x_hd.o(.text)
    USB_LP_CAN1_RX0_IRQHandler               0x08008cb3   Thumb Code     0  startup_stm32f10x_hd.o(.text)
    WWDG_IRQHandler                          0x08008cb3   Thumb Code     0  startup_stm32f10x_hd.o(.text)
    __user_initial_stackheap                 0x08008cb5   Thumb Code     0  startup_stm32f10x_hd.o(.text)
    NVIC_PriorityGroupConfig                 0x08008cd9   Thumb Code    10  misc.o(.text)
    NVIC_Init                                0x08008ce3   Thumb Code   100  misc.o(.text)
    NVIC_SetVectorTable                      0x08008d47   Thumb Code    14  misc.o(.text)
    NVIC_SystemLPConfig                      0x08008d55   Thumb Code    34  misc.o(.text)
    SysTick_CLKSourceConfig                  0x08008d77   Thumb Code    40  misc.o(.text)
    GPIO_DeInit                              0x08008db5   Thumb Code   172  stm32f10x_gpio.o(.text)
    GPIO_AFIODeInit                          0x08008e61   Thumb Code    20  stm32f10x_gpio.o(.text)
    GPIO_Init                                0x08008e75   Thumb Code   278  stm32f10x_gpio.o(.text)
    GPIO_StructInit                          0x08008f8b   Thumb Code    16  stm32f10x_gpio.o(.text)
    GPIO_ReadInputDataBit                    0x08008f9b   Thumb Code    18  stm32f10x_gpio.o(.text)
    GPIO_ReadInputData                       0x08008fad   Thumb Code     8  stm32f10x_gpio.o(.text)
    GPIO_ReadOutputDataBit                   0x08008fb5   Thumb Code    18  stm32f10x_gpio.o(.text)
    GPIO_ReadOutputData                      0x08008fc7   Thumb Code     8  stm32f10x_gpio.o(.text)
    GPIO_SetBits                             0x08008fcf   Thumb Code     4  stm32f10x_gpio.o(.text)
    GPIO_ResetBits                           0x08008fd3   Thumb Code     4  stm32f10x_gpio.o(.text)
    GPIO_WriteBit                            0x08008fd7   Thumb Code    10  stm32f10x_gpio.o(.text)
    GPIO_Write                               0x08008fe1   Thumb Code     4  stm32f10x_gpio.o(.text)
    GPIO_PinLockConfig                       0x08008fe5   Thumb Code    18  stm32f10x_gpio.o(.text)
    GPIO_EventOutputConfig                   0x08008ff7   Thumb Code    26  stm32f10x_gpio.o(.text)
    GPIO_EventOutputCmd                      0x08009011   Thumb Code     6  stm32f10x_gpio.o(.text)
    GPIO_PinRemapConfig                      0x08009017   Thumb Code   138  stm32f10x_gpio.o(.text)
    GPIO_EXTILineConfig                      0x080090a1   Thumb Code    66  stm32f10x_gpio.o(.text)
    GPIO_ETH_MediaInterfaceConfig            0x080090e3   Thumb Code     8  stm32f10x_gpio.o(.text)
    RCC_DeInit                               0x08009111   Thumb Code    64  stm32f10x_rcc.o(.text)
    RCC_HSEConfig                            0x08009151   Thumb Code    70  stm32f10x_rcc.o(.text)
    RCC_GetFlagStatus                        0x08009197   Thumb Code    56  stm32f10x_rcc.o(.text)
    RCC_WaitForHSEStartUp                    0x080091cf   Thumb Code    56  stm32f10x_rcc.o(.text)
    RCC_AdjustHSICalibrationValue            0x08009207   Thumb Code    20  stm32f10x_rcc.o(.text)
    RCC_HSICmd                               0x0800921b   Thumb Code     6  stm32f10x_rcc.o(.text)
    RCC_PLLConfig                            0x08009221   Thumb Code    24  stm32f10x_rcc.o(.text)
    RCC_PLLCmd                               0x08009239   Thumb Code     6  stm32f10x_rcc.o(.text)
    RCC_SYSCLKConfig                         0x0800923f   Thumb Code    18  stm32f10x_rcc.o(.text)
    RCC_GetSYSCLKSource                      0x08009251   Thumb Code    10  stm32f10x_rcc.o(.text)
    RCC_HCLKConfig                           0x0800925b   Thumb Code    18  stm32f10x_rcc.o(.text)
    RCC_PCLK1Config                          0x0800926d   Thumb Code    18  stm32f10x_rcc.o(.text)
    RCC_PCLK2Config                          0x0800927f   Thumb Code    20  stm32f10x_rcc.o(.text)
    RCC_ITConfig                             0x08009293   Thumb Code    26  stm32f10x_rcc.o(.text)
    RCC_USBCLKConfig                         0x080092ad   Thumb Code     8  stm32f10x_rcc.o(.text)
    RCC_ADCCLKConfig                         0x080092b5   Thumb Code    18  stm32f10x_rcc.o(.text)
    RCC_LSEConfig                            0x080092c7   Thumb Code    50  stm32f10x_rcc.o(.text)
    RCC_LSICmd                               0x080092f9   Thumb Code     6  stm32f10x_rcc.o(.text)
    RCC_RTCCLKConfig                         0x080092ff   Thumb Code    12  stm32f10x_rcc.o(.text)
    RCC_RTCCLKCmd                            0x0800930b   Thumb Code     8  stm32f10x_rcc.o(.text)
    RCC_GetClocksFreq                        0x08009313   Thumb Code   192  stm32f10x_rcc.o(.text)
    RCC_AHBPeriphClockCmd                    0x080093d3   Thumb Code    26  stm32f10x_rcc.o(.text)
    RCC_APB2PeriphClockCmd                   0x080093ed   Thumb Code    26  stm32f10x_rcc.o(.text)
    RCC_APB1PeriphClockCmd                   0x08009407   Thumb Code    26  stm32f10x_rcc.o(.text)
    RCC_APB2PeriphResetCmd                   0x08009421   Thumb Code    26  stm32f10x_rcc.o(.text)
    RCC_APB1PeriphResetCmd                   0x0800943b   Thumb Code    26  stm32f10x_rcc.o(.text)
    RCC_BackupResetCmd                       0x08009455   Thumb Code     8  stm32f10x_rcc.o(.text)
    RCC_ClockSecuritySystemCmd               0x0800945d   Thumb Code     6  stm32f10x_rcc.o(.text)
    RCC_MCOConfig                            0x08009463   Thumb Code     6  stm32f10x_rcc.o(.text)
    RCC_ClearFlag                            0x08009469   Thumb Code    14  stm32f10x_rcc.o(.text)
    RCC_GetITStatus                          0x08009477   Thumb Code    20  stm32f10x_rcc.o(.text)
    RCC_ClearITPendingBit                    0x0800948b   Thumb Code     6  stm32f10x_rcc.o(.text)
    USART_DeInit                             0x080094b5   Thumb Code   134  stm32f10x_usart.o(.text)
    USART_Init                               0x0800953b   Thumb Code   210  stm32f10x_usart.o(.text)
    USART_StructInit                         0x0800960d   Thumb Code    24  stm32f10x_usart.o(.text)
    USART_ClockInit                          0x08009625   Thumb Code    34  stm32f10x_usart.o(.text)
    USART_ClockStructInit                    0x08009647   Thumb Code    12  stm32f10x_usart.o(.text)
    USART_Cmd                                0x08009653   Thumb Code    24  stm32f10x_usart.o(.text)
    USART_ITConfig                           0x0800966b   Thumb Code    74  stm32f10x_usart.o(.text)
    USART_DMACmd                             0x080096b5   Thumb Code    18  stm32f10x_usart.o(.text)
    USART_SetAddress                         0x080096c7   Thumb Code    18  stm32f10x_usart.o(.text)
    USART_WakeUpConfig                       0x080096d9   Thumb Code    18  stm32f10x_usart.o(.text)
    USART_ReceiverWakeUpCmd                  0x080096eb   Thumb Code    24  stm32f10x_usart.o(.text)
    USART_LINBreakDetectLengthConfig         0x08009703   Thumb Code    18  stm32f10x_usart.o(.text)
    USART_LINCmd                             0x08009715   Thumb Code    24  stm32f10x_usart.o(.text)
    USART_SendData                           0x0800972d   Thumb Code     8  stm32f10x_usart.o(.text)
    USART_ReceiveData                        0x08009735   Thumb Code    10  stm32f10x_usart.o(.text)
    USART_SendBreak                          0x0800973f   Thumb Code    10  stm32f10x_usart.o(.text)
    USART_SetGuardTime                       0x08009749   Thumb Code    16  stm32f10x_usart.o(.text)
    USART_SetPrescaler                       0x08009759   Thumb Code    16  stm32f10x_usart.o(.text)
    USART_SmartCardCmd                       0x08009769   Thumb Code    24  stm32f10x_usart.o(.text)
    USART_SmartCardNACKCmd                   0x08009781   Thumb Code    24  stm32f10x_usart.o(.text)
    USART_HalfDuplexCmd                      0x08009799   Thumb Code    24  stm32f10x_usart.o(.text)
    USART_OverSampling8Cmd                   0x080097b1   Thumb Code    22  stm32f10x_usart.o(.text)
    USART_OneBitMethodCmd                    0x080097c7   Thumb Code    24  stm32f10x_usart.o(.text)
    USART_IrDAConfig                         0x080097df   Thumb Code    18  stm32f10x_usart.o(.text)
    USART_IrDACmd                            0x080097f1   Thumb Code    24  stm32f10x_usart.o(.text)
    USART_GetFlagStatus                      0x08009809   Thumb Code    26  stm32f10x_usart.o(.text)
    USART_ClearFlag                          0x08009823   Thumb Code    18  stm32f10x_usart.o(.text)
    USART_GetITStatus                        0x08009835   Thumb Code    84  stm32f10x_usart.o(.text)
    USART_ClearITPendingBit                  0x08009889   Thumb Code    52  stm32f10x_usart.o(.text)
    TIM_DeInit                               0x080098bd   Thumb Code   424  stm32f10x_tim.o(.text)
    TIM_TimeBaseInit                         0x08009a65   Thumb Code   122  stm32f10x_tim.o(.text)
    TIM_OC1Init                              0x08009adf   Thumb Code   132  stm32f10x_tim.o(.text)
    TIM_OC2Init                              0x08009b63   Thumb Code   154  stm32f10x_tim.o(.text)
    TIM_OC3Init                              0x08009bfd   Thumb Code   150  stm32f10x_tim.o(.text)
    TIM_OC4Init                              0x08009c93   Thumb Code   182  stm32f10x_tim.o(.text)
    TIM_SetIC4Prescaler                      0x08009d49   Thumb Code    26  stm32f10x_tim.o(.text)
    TIM_SetIC3Prescaler                      0x08009de5   Thumb Code    18  stm32f10x_tim.o(.text)
    TIM_SetIC2Prescaler                      0x08009e71   Thumb Code    26  stm32f10x_tim.o(.text)
    TIM_SetIC1Prescaler                      0x08009f0d   Thumb Code    18  stm32f10x_tim.o(.text)
    TIM_ICInit                               0x08009f8b   Thumb Code   150  stm32f10x_tim.o(.text)
    TIM_PWMIConfig                           0x0800a021   Thumb Code   124  stm32f10x_tim.o(.text)
    TIM_BDTRConfig                           0x0800a09d   Thumb Code    32  stm32f10x_tim.o(.text)
    TIM_TimeBaseStructInit                   0x0800a0bd   Thumb Code    18  stm32f10x_tim.o(.text)
    TIM_OCStructInit                         0x0800a0cf   Thumb Code    20  stm32f10x_tim.o(.text)
    TIM_ICStructInit                         0x0800a0e3   Thumb Code    18  stm32f10x_tim.o(.text)
    TIM_BDTRStructInit                       0x0800a0f5   Thumb Code    40  stm32f10x_tim.o(.text)
    TIM_Cmd                                  0x0800a11d   Thumb Code    24  stm32f10x_tim.o(.text)
    TIM_CtrlPWMOutputs                       0x0800a135   Thumb Code    30  stm32f10x_tim.o(.text)
    TIM_ITConfig                             0x0800a153   Thumb Code    18  stm32f10x_tim.o(.text)
    TIM_GenerateEvent                        0x0800a165   Thumb Code     4  stm32f10x_tim.o(.text)
    TIM_DMAConfig                            0x0800a169   Thumb Code    10  stm32f10x_tim.o(.text)
    TIM_DMACmd                               0x0800a173   Thumb Code    18  stm32f10x_tim.o(.text)
    TIM_InternalClockConfig                  0x0800a185   Thumb Code    12  stm32f10x_tim.o(.text)
    TIM_SelectInputTrigger                   0x0800a191   Thumb Code    18  stm32f10x_tim.o(.text)
    TIM_ITRxExternalClockConfig              0x0800a1a3   Thumb Code    24  stm32f10x_tim.o(.text)
    TIM_TIxExternalClockConfig               0x0800a1bb   Thumb Code    62  stm32f10x_tim.o(.text)
    TIM_ETRConfig                            0x0800a1f9   Thumb Code    28  stm32f10x_tim.o(.text)
    TIM_ETRClockMode1Config                  0x0800a215   Thumb Code    54  stm32f10x_tim.o(.text)
    TIM_ETRClockMode2Config                  0x0800a24b   Thumb Code    32  stm32f10x_tim.o(.text)
    TIM_PrescalerConfig                      0x0800a26b   Thumb Code     6  stm32f10x_tim.o(.text)
    TIM_CounterModeConfig                    0x0800a271   Thumb Code    18  stm32f10x_tim.o(.text)
    TIM_EncoderInterfaceConfig               0x0800a283   Thumb Code    66  stm32f10x_tim.o(.text)
    TIM_ForcedOC1Config                      0x0800a2c5   Thumb Code    18  stm32f10x_tim.o(.text)
    TIM_ForcedOC2Config                      0x0800a2d7   Thumb Code    26  stm32f10x_tim.o(.text)
    TIM_ForcedOC3Config                      0x0800a2f1   Thumb Code    18  stm32f10x_tim.o(.text)
    TIM_ForcedOC4Config                      0x0800a303   Thumb Code    26  stm32f10x_tim.o(.text)
    TIM_ARRPreloadConfig                     0x0800a31d   Thumb Code    24  stm32f10x_tim.o(.text)
    TIM_SelectCOM                            0x0800a335   Thumb Code    24  stm32f10x_tim.o(.text)
    TIM_SelectCCDMA                          0x0800a34d   Thumb Code    24  stm32f10x_tim.o(.text)
    TIM_CCPreloadControl                     0x0800a365   Thumb Code    24  stm32f10x_tim.o(.text)
    TIM_OC1PreloadConfig                     0x0800a37d   Thumb Code    18  stm32f10x_tim.o(.text)
    TIM_OC2PreloadConfig                     0x0800a38f   Thumb Code    26  stm32f10x_tim.o(.text)
    TIM_OC3PreloadConfig                     0x0800a3a9   Thumb Code    18  stm32f10x_tim.o(.text)
    TIM_OC4PreloadConfig                     0x0800a3bb   Thumb Code    26  stm32f10x_tim.o(.text)
    TIM_OC1FastConfig                        0x0800a3d5   Thumb Code    18  stm32f10x_tim.o(.text)
    TIM_OC2FastConfig                        0x0800a3e7   Thumb Code    26  stm32f10x_tim.o(.text)
    TIM_OC3FastConfig                        0x0800a401   Thumb Code    18  stm32f10x_tim.o(.text)
    TIM_OC4FastConfig                        0x0800a413   Thumb Code    26  stm32f10x_tim.o(.text)
    TIM_ClearOC1Ref                          0x0800a42d   Thumb Code    18  stm32f10x_tim.o(.text)
    TIM_ClearOC2Ref                          0x0800a43f   Thumb Code    24  stm32f10x_tim.o(.text)
    TIM_ClearOC3Ref                          0x0800a457   Thumb Code    18  stm32f10x_tim.o(.text)
    TIM_ClearOC4Ref                          0x0800a469   Thumb Code    24  stm32f10x_tim.o(.text)
    TIM_OC1PolarityConfig                    0x0800a481   Thumb Code    18  stm32f10x_tim.o(.text)
    TIM_OC1NPolarityConfig                   0x0800a493   Thumb Code    18  stm32f10x_tim.o(.text)
    TIM_OC2PolarityConfig                    0x0800a4a5   Thumb Code    26  stm32f10x_tim.o(.text)
    TIM_OC2NPolarityConfig                   0x0800a4bf   Thumb Code    26  stm32f10x_tim.o(.text)
    TIM_OC3PolarityConfig                    0x0800a4d9   Thumb Code    26  stm32f10x_tim.o(.text)
    TIM_OC3NPolarityConfig                   0x0800a4f3   Thumb Code    26  stm32f10x_tim.o(.text)
    TIM_OC4PolarityConfig                    0x0800a50d   Thumb Code    26  stm32f10x_tim.o(.text)
    TIM_CCxCmd                               0x0800a527   Thumb Code    30  stm32f10x_tim.o(.text)
    TIM_CCxNCmd                              0x0800a545   Thumb Code    30  stm32f10x_tim.o(.text)
    TIM_SelectOCxM                           0x0800a563   Thumb Code    82  stm32f10x_tim.o(.text)
    TIM_UpdateDisableConfig                  0x0800a5b5   Thumb Code    24  stm32f10x_tim.o(.text)
    TIM_UpdateRequestConfig                  0x0800a5cd   Thumb Code    24  stm32f10x_tim.o(.text)
    TIM_SelectHallSensor                     0x0800a5e5   Thumb Code    24  stm32f10x_tim.o(.text)
    TIM_SelectOnePulseMode                   0x0800a5fd   Thumb Code    18  stm32f10x_tim.o(.text)
    TIM_SelectOutputTrigger                  0x0800a60f   Thumb Code    18  stm32f10x_tim.o(.text)
    TIM_SelectSlaveMode                      0x0800a621   Thumb Code    18  stm32f10x_tim.o(.text)
    TIM_SelectMasterSlaveMode                0x0800a633   Thumb Code    18  stm32f10x_tim.o(.text)
    TIM_SetCounter                           0x0800a645   Thumb Code     4  stm32f10x_tim.o(.text)
    TIM_SetAutoreload                        0x0800a649   Thumb Code     4  stm32f10x_tim.o(.text)
    TIM_SetCompare1                          0x0800a64d   Thumb Code     4  stm32f10x_tim.o(.text)
    TIM_SetCompare2                          0x0800a651   Thumb Code     4  stm32f10x_tim.o(.text)
    TIM_SetCompare3                          0x0800a655   Thumb Code     4  stm32f10x_tim.o(.text)
    TIM_SetCompare4                          0x0800a659   Thumb Code     6  stm32f10x_tim.o(.text)
    TIM_SetClockDivision                     0x0800a65f   Thumb Code    18  stm32f10x_tim.o(.text)
    TIM_GetCapture1                          0x0800a671   Thumb Code     6  stm32f10x_tim.o(.text)
    TIM_GetCapture2                          0x0800a677   Thumb Code     6  stm32f10x_tim.o(.text)
    TIM_GetCapture3                          0x0800a67d   Thumb Code     6  stm32f10x_tim.o(.text)
    TIM_GetCapture4                          0x0800a683   Thumb Code     8  stm32f10x_tim.o(.text)
    TIM_GetCounter                           0x0800a68b   Thumb Code     6  stm32f10x_tim.o(.text)
    TIM_GetPrescaler                         0x0800a691   Thumb Code     6  stm32f10x_tim.o(.text)
    TIM_GetFlagStatus                        0x0800a697   Thumb Code    18  stm32f10x_tim.o(.text)
    TIM_ClearFlag                            0x0800a6a9   Thumb Code     6  stm32f10x_tim.o(.text)
    TIM_GetITStatus                          0x0800a6af   Thumb Code    34  stm32f10x_tim.o(.text)
    TIM_ClearITPendingBit                    0x0800a6d1   Thumb Code     6  stm32f10x_tim.o(.text)
    EXTI_DeInit                              0x0800a6d9   Thumb Code    28  stm32f10x_exti.o(.text)
    EXTI_Init                                0x0800a6f5   Thumb Code   142  stm32f10x_exti.o(.text)
    EXTI_StructInit                          0x0800a783   Thumb Code    16  stm32f10x_exti.o(.text)
    EXTI_GenerateSWInterrupt                 0x0800a793   Thumb Code    16  stm32f10x_exti.o(.text)
    EXTI_GetFlagStatus                       0x0800a7a3   Thumb Code    22  stm32f10x_exti.o(.text)
    EXTI_ClearFlag                           0x0800a7b9   Thumb Code     8  stm32f10x_exti.o(.text)
    EXTI_GetITStatus                         0x0800a7c1   Thumb Code    34  stm32f10x_exti.o(.text)
    EXTI_ClearITPendingBit                   0x0800a7e3   Thumb Code     8  stm32f10x_exti.o(.text)
    FLASH_SetLatency                         0x0800a7f5   Thumb Code    18  stm32f10x_flash.o(.text)
    FLASH_HalfCycleAccessCmd                 0x0800a807   Thumb Code    22  stm32f10x_flash.o(.text)
    FLASH_PrefetchBufferCmd                  0x0800a81d   Thumb Code    22  stm32f10x_flash.o(.text)
    FLASH_Unlock                             0x0800a833   Thumb Code    12  stm32f10x_flash.o(.text)
    FLASH_UnlockBank1                        0x0800a83f   Thumb Code    12  stm32f10x_flash.o(.text)
    FLASH_Lock                               0x0800a84b   Thumb Code    14  stm32f10x_flash.o(.text)
    FLASH_LockBank1                          0x0800a859   Thumb Code    14  stm32f10x_flash.o(.text)
    FLASH_GetBank1Status                     0x0800a867   Thumb Code    48  stm32f10x_flash.o(.text)
    FLASH_WaitForLastOperation               0x0800a897   Thumb Code    38  stm32f10x_flash.o(.text)
    FLASH_ErasePage                          0x0800a8bd   Thumb Code    72  stm32f10x_flash.o(.text)
    FLASH_EraseAllPages                      0x0800a905   Thumb Code    68  stm32f10x_flash.o(.text)
    FLASH_WaitForLastBank1Operation          0x0800a949   Thumb Code    38  stm32f10x_flash.o(.text)
    FLASH_EraseAllBank1Pages                 0x0800a96f   Thumb Code    68  stm32f10x_flash.o(.text)
    FLASH_GetReadOutProtectionStatus         0x0800a9b3   Thumb Code    20  stm32f10x_flash.o(.text)
    FLASH_EraseOptionBytes                   0x0800a9c7   Thumb Code   150  stm32f10x_flash.o(.text)
    FLASH_ProgramWord                        0x0800aa5d   Thumb Code   102  stm32f10x_flash.o(.text)
    FLASH_ProgramHalfWord                    0x0800aac3   Thumb Code    60  stm32f10x_flash.o(.text)
    FLASH_ProgramOptionByteData              0x0800aaff   Thumb Code    72  stm32f10x_flash.o(.text)
    FLASH_EnableWriteProtection              0x0800ab47   Thumb Code   200  stm32f10x_flash.o(.text)
    FLASH_ReadOutProtection                  0x0800ac0f   Thumb Code   156  stm32f10x_flash.o(.text)
    FLASH_UserOptionByteConfig               0x0800acab   Thumb Code    88  stm32f10x_flash.o(.text)
    FLASH_GetUserOptionByte                  0x0800ad03   Thumb Code     8  stm32f10x_flash.o(.text)
    FLASH_GetWriteProtectionOptionByte       0x0800ad0b   Thumb Code     6  stm32f10x_flash.o(.text)
    FLASH_GetPrefetchBufferStatus            0x0800ad11   Thumb Code    20  stm32f10x_flash.o(.text)
    FLASH_ITConfig                           0x0800ad25   Thumb Code    26  stm32f10x_flash.o(.text)
    FLASH_GetFlagStatus                      0x0800ad3f   Thumb Code    42  stm32f10x_flash.o(.text)
    FLASH_ClearFlag                          0x0800ad69   Thumb Code     6  stm32f10x_flash.o(.text)
    FLASH_GetStatus                          0x0800ad6f   Thumb Code    48  stm32f10x_flash.o(.text)
    IWDG_WriteAccessCmd                      0x0800adb1   Thumb Code     6  stm32f10x_iwdg.o(.text)
    IWDG_SetPrescaler                        0x0800adb7   Thumb Code     6  stm32f10x_iwdg.o(.text)
    IWDG_SetReload                           0x0800adbd   Thumb Code     6  stm32f10x_iwdg.o(.text)
    IWDG_ReloadCounter                       0x0800adc3   Thumb Code    10  stm32f10x_iwdg.o(.text)
    IWDG_Enable                              0x0800adcd   Thumb Code    10  stm32f10x_iwdg.o(.text)
    IWDG_GetFlagStatus                       0x0800add7   Thumb Code    20  stm32f10x_iwdg.o(.text)
    SPI_I2S_DeInit                           0x0800adf1   Thumb Code    76  stm32f10x_spi.o(.text)
    SPI_Init                                 0x0800ae3d   Thumb Code    60  stm32f10x_spi.o(.text)
    I2S_Init                                 0x0800ae79   Thumb Code   226  stm32f10x_spi.o(.text)
    SPI_StructInit                           0x0800af5b   Thumb Code    24  stm32f10x_spi.o(.text)
    I2S_StructInit                           0x0800af73   Thumb Code    20  stm32f10x_spi.o(.text)
    SPI_Cmd                                  0x0800af87   Thumb Code    24  stm32f10x_spi.o(.text)
    I2S_Cmd                                  0x0800af9f   Thumb Code    24  stm32f10x_spi.o(.text)
    SPI_I2S_ITConfig                         0x0800afb7   Thumb Code    32  stm32f10x_spi.o(.text)
    SPI_I2S_DMACmd                           0x0800afd7   Thumb Code    18  stm32f10x_spi.o(.text)
    SPI_I2S_SendData                         0x0800afe9   Thumb Code     4  stm32f10x_spi.o(.text)
    SPI_I2S_ReceiveData                      0x0800afed   Thumb Code     6  stm32f10x_spi.o(.text)
    SPI_NSSInternalSoftwareConfig            0x0800aff3   Thumb Code    30  stm32f10x_spi.o(.text)
    SPI_SSOutputCmd                          0x0800b011   Thumb Code    24  stm32f10x_spi.o(.text)
    SPI_DataSizeConfig                       0x0800b029   Thumb Code    18  stm32f10x_spi.o(.text)
    SPI_TransmitCRC                          0x0800b03b   Thumb Code    10  stm32f10x_spi.o(.text)
    SPI_CalculateCRC                         0x0800b045   Thumb Code    24  stm32f10x_spi.o(.text)
    SPI_GetCRC                               0x0800b05d   Thumb Code    16  stm32f10x_spi.o(.text)
    SPI_GetCRCPolynomial                     0x0800b06d   Thumb Code     6  stm32f10x_spi.o(.text)
    SPI_BiDirectionalLineConfig              0x0800b073   Thumb Code    28  stm32f10x_spi.o(.text)
    SPI_I2S_GetFlagStatus                    0x0800b08f   Thumb Code    18  stm32f10x_spi.o(.text)
    SPI_I2S_ClearFlag                        0x0800b0a1   Thumb Code     6  stm32f10x_spi.o(.text)
    SPI_I2S_GetITStatus                      0x0800b0a7   Thumb Code    52  stm32f10x_spi.o(.text)
    SPI_I2S_ClearITPendingBit                0x0800b0db   Thumb Code    20  stm32f10x_spi.o(.text)
    RC522_Init                               0x0800b1a7   Thumb Code    42  rc522_config.o(.text)
    IC_test                                  0x0800b1d1   Thumb Code    72  rc522_config.o(.text)
    SPI_RC522_SendByte                       0x0800b22d   Thumb Code    80  rc522_function.o(.text)
    SPI_RC522_ReadByte                       0x0800b27d   Thumb Code    72  rc522_function.o(.text)
    ReadRawRC                                0x0800b2c5   Thumb Code    50  rc522_function.o(.text)
    WriteRawRC                               0x0800b2f7   Thumb Code    46  rc522_function.o(.text)
    SetBitMask                               0x0800b325   Thumb Code    26  rc522_function.o(.text)
    ClearBitMask                             0x0800b33f   Thumb Code    26  rc522_function.o(.text)
    PcdAntennaOn                             0x0800b359   Thumb Code    26  rc522_function.o(.text)
    PcdAntennaOff                            0x0800b373   Thumb Code    12  rc522_function.o(.text)
    PcdReset                                 0x0800b37f   Thumb Code   124  rc522_function.o(.text)
    M500PcdConfigISOType                     0x0800b3fb   Thumb Code    84  rc522_function.o(.text)
    PcdComMF522                              0x0800b44f   Thumb Code   306  rc522_function.o(.text)
    PcdRequest                               0x0800b581   Thumb Code    86  rc522_function.o(.text)
    PcdAnticoll                              0x0800b5d7   Thumb Code   126  rc522_function.o(.text)
    CalulateCRC                              0x0800b655   Thumb Code   108  rc522_function.o(.text)
    PcdSelect                                0x0800b6c1   Thumb Code   114  rc522_function.o(.text)
    PcdAuthState                             0x0800b733   Thumb Code   112  rc522_function.o(.text)
    PcdWrite                                 0x0800b7a3   Thumb Code   152  rc522_function.o(.text)
    PcdRead                                  0x0800b83b   Thumb Code    86  rc522_function.o(.text)
    PcdHalt                                  0x0800b891   Thumb Code    50  rc522_function.o(.text)
    IC_CMT                                   0x0800b8c3   Thumb Code    72  rc522_function.o(.text)
    DS1302_Init                              0x0800b90d   Thumb Code    54  ds1302.o(.text)
    DS1302_Write_Byte                        0x0800b943   Thumb Code   180  ds1302.o(.text)
    DS1302_Read_Byte                         0x0800b9f7   Thumb Code   196  ds1302.o(.text)
    GetWeek                                  0x0800babb   Thumb Code   188  ds1302.o(.text)
    DS1302_Write_Time                        0x0800bb77   Thumb Code    94  ds1302.o(.text)
    DS1302_Read_Time                         0x0800bbd5   Thumb Code    78  ds1302.o(.text)
    DS1302_Get_sysTime                       0x0800bc23   Thumb Code    30  ds1302.o(.text)
    DS1302_Get_Time                          0x0800bc41   Thumb Code   146  ds1302.o(.text)
    SetNowTime                               0x0800bcd3   Thumb Code    86  ds1302.o(.text)
    AnalyzeWorkStatus                        0x0800bd29   Thumb Code   302  sysvar.o(.text)
    InitOutput                               0x0800be57   Thumb Code    20  sysvar.o(.text)
    BeginOutput1                             0x0800be6b   Thumb Code    18  sysvar.o(.text)
    EndOutput1                               0x0800be7d   Thumb Code    18  sysvar.o(.text)
    BeginOutput2                             0x0800be8f   Thumb Code    18  sysvar.o(.text)
    EndOutput2                               0x0800bea1   Thumb Code    18  sysvar.o(.text)
    CheckInit                                0x0800beb3   Thumb Code    42  sysvar.o(.text)
    Get_ChipInfo                             0x0800bedd   Thumb Code   186  sysvar.o(.text)
    Menu_CheckKEY                            0x0800bfe9   Thumb Code    36  keyfun.o(.text)
    SetWorkStatus                            0x0800c00d   Thumb Code     6  keyfun.o(.text)
    GetWorkStatus                            0x0800c013   Thumb Code    18  keyfun.o(.text)
    Clear_Key_Status                         0x0800c025   Thumb Code    38  keyfun.o(.text)
    UndoPressKEY                             0x0800c04b   Thumb Code    38  keyfun.o(.text)
    ProcessKEYCMD                            0x0800c071   Thumb Code   420  keyfun.o(.text)
    CheckKEY                                 0x0800c215   Thumb Code   366  keyfun.o(.text)
    MyStrEQ                                  0x0800c3cd   Thumb Code    34  syscomm.o(.text)
    MyStrCPY                                 0x0800c3ef   Thumb Code    22  syscomm.o(.text)
    GetXOR                                   0x0800c405   Thumb Code    26  syscomm.o(.text)
    MyStrCMP                                 0x0800c41f   Thumb Code    46  syscomm.o(.text)
    Beep                                     0x0800c44d   Thumb Code    46  syscomm.o(.text)
    LED1_fun                                 0x0800c47b   Thumb Code    48  syscomm.o(.text)
    LED2_fun                                 0x0800c4ab   Thumb Code    48  syscomm.o(.text)
    GetSum                                   0x0800c4db   Thumb Code    28  syscomm.o(.text)
    HexToStr                                 0x0800c4f7   Thumb Code    82  syscomm.o(.text)
    StrToHex                                 0x0800c549   Thumb Code    80  syscomm.o(.text)
    StrTodec                                 0x0800c599   Thumb Code    84  syscomm.o(.text)
    HextoBCD                                 0x0800c5ed   Thumb Code    40  syscomm.o(.text)
    GetASCIIValue                            0x0800c615   Thumb Code    38  syscomm.o(.text)
    GetBCDValue1                             0x0800c63b   Thumb Code    44  syscomm.o(.text)
    power                                    0x0800c667   Thumb Code    20  syscomm.o(.text)
    getBCDtoDec                              0x0800c67b   Thumb Code    60  syscomm.o(.text)
    getDectoBCD                              0x0800c6b7   Thumb Code    54  syscomm.o(.text)
    turn_4_data                              0x0800c6ed   Thumb Code    18  syscomm.o(.text)
    turn_2_data                              0x0800c6ff   Thumb Code    10  syscomm.o(.text)
    separate_value_2_1                       0x0800c709   Thumb Code    22  syscomm.o(.text)
    separate_value_1_4                       0x0800c71f   Thumb Code    16  syscomm.o(.text)
    GAEI_IC_Conversion                       0x0800c72f   Thumb Code    32  syscomm.o(.text)
    InitSysvar                               0x0800c74f   Thumb Code    74  syscomm.o(.text)
    SaveSysvar                               0x0800c799   Thumb Code    16  syscomm.o(.text)
    SaveExtvar                               0x0800c7a9   Thumb Code    16  syscomm.o(.text)
    ReyurnCommand_Send                       0x0800c7dd   Thumb Code    90  comcmd.o(.text)
    Send_ReyurnGETCommand_Value              0x0800c837   Thumb Code    98  comcmd.o(.text)
    GetMachType                              0x0800c899   Thumb Code    14  comcmd.o(.text)
    GetVersion                               0x0800c8a7   Thumb Code    14  comcmd.o(.text)
    SetMachno                                0x0800c8b5   Thumb Code    42  comcmd.o(.text)
    GetMachno                                0x0800c8df   Thumb Code    12  comcmd.o(.text)
    SetTime                                  0x0800c8eb   Thumb Code    50  comcmd.o(.text)
    GetTime                                  0x0800c91d   Thumb Code    20  comcmd.o(.text)
    SetSectionAndPassword                    0x0800c931   Thumb Code    44  comcmd.o(.text)
    GetSectionAndPassword                    0x0800c95d   Thumb Code    30  comcmd.o(.text)
    Set_Clock_delay                          0x0800c97b   Thumb Code    56  comcmd.o(.text)
    Set_Output_delay                         0x0800c9b3   Thumb Code    56  comcmd.o(.text)
    Set_list_enabled                         0x0800c9eb   Thumb Code    56  comcmd.o(.text)
    Get_sysvar                               0x0800ca23   Thumb Code    22  comcmd.o(.text)
    Set_Restore_factory                      0x0800ca39   Thumb Code    28  comcmd.o(.text)
    Set_ResNottore_factory                   0x0800ca55   Thumb Code    72  comcmd.o(.text)
    Get_ChipInfo_Com                         0x0800ca9d   Thumb Code    16  comcmd.o(.text)
    Set_TCP_Mode                             0x0800caad   Thumb Code    90  comcmd.o(.text)
    Set_This_MAC                             0x0800cb07   Thumb Code    58  comcmd.o(.text)
    Get_This_MAC                             0x0800cb41   Thumb Code    30  comcmd.o(.text)
    Set_TCP_Local_IP                         0x0800cb5f   Thumb Code    60  comcmd.o(.text)
    Get_TCP_Local_IP                         0x0800cb9b   Thumb Code   166  comcmd.o(.text)
    Set_TCP_Remote_IP                        0x0800cc41   Thumb Code    58  comcmd.o(.text)
    Get_TCP_Remote_IP                        0x0800cc7b   Thumb Code    38  comcmd.o(.text)
    Set_TCP4G_Remote_IP                      0x0800cca1   Thumb Code    62  comcmd.o(.text)
    Get_TCP4G_Remote_IP                      0x0800ccdf   Thumb Code    34  comcmd.o(.text)
    Set_Open_Door                            0x0800cd01   Thumb Code   266  comcmd.o(.text)
    Set_NO_Open_Door                         0x0800ce0b   Thumb Code    22  comcmd.o(.text)
    Realtime_Upload_Record                   0x0800ce21   Thumb Code     2  comcmd.o(.text)
    Realtime_Upload_Return                   0x0800ce23   Thumb Code    42  comcmd.o(.text)
    GetUpdataRecordCount                     0x0800ce4d   Thumb Code    44  comcmd.o(.text)
    GetUpdata_MaxRecord                      0x0800ce79   Thumb Code   162  comcmd.o(.text)
    ClearUpdataRecord                        0x0800cf1b   Thumb Code    18  comcmd.o(.text)
    UpdataRecordTEST                         0x0800cf2d   Thumb Code    30  comcmd.o(.text)
    Get_Heartbeat_Send                       0x0800cf4b   Thumb Code    10  comcmd.o(.text)
    Heartbeat_Return                         0x0800cf55   Thumb Code    14  comcmd.o(.text)
    Network_Synchronization_Time             0x0800cf63   Thumb Code    76  comcmd.o(.text)
    Send_Power_Signal                        0x0800cfaf   Thumb Code    52  comcmd.o(.text)
    GetBackWhiteNamesize                     0x0800cfe3   Thumb Code   310  comcmd.o(.text)
    SetWhiteGroupName                        0x0800d119   Thumb Code   304  comcmd.o(.text)
    GetWhiteGroupName                        0x0800d249   Thumb Code   290  comcmd.o(.text)
    ClearWhiteName                           0x0800d36b   Thumb Code    34  comcmd.o(.text)
    AddOneWhiteGroupName                     0x0800d38d   Thumb Code    32  comcmd.o(.text)
    DelOneWhiteGroupName                     0x0800d3ad   Thumb Code    32  comcmd.o(.text)
    SetBackGroupName                         0x0800d3cd   Thumb Code   204  comcmd.o(.text)
    GetBackGroupName                         0x0800d499   Thumb Code   328  comcmd.o(.text)
    ClearBackName                            0x0800d5e1   Thumb Code    34  comcmd.o(.text)
    AddOneBackGroupName                      0x0800d603   Thumb Code    34  comcmd.o(.text)
    DelOneBackGroupName                      0x0800d625   Thumb Code    34  comcmd.o(.text)
    GetMaxRecordCount                        0x0800d647   Thumb Code   104  comcmd.o(.text)
    GetRecord_Address                        0x0800d6af   Thumb Code   320  comcmd.o(.text)
    Get_MaxRecord                            0x0800d7ef   Thumb Code   128  comcmd.o(.text)
    ClearRecord                              0x0800d86f   Thumb Code   108  comcmd.o(.text)
    Set_Interval_delay                       0x0800d8db   Thumb Code    56  comcmd.o(.text)
    Set_ReadorWriteICData_Mode               0x0800d913   Thumb Code   106  comcmd.o(.text)
    Set_Check_Sector_Password_Mode           0x0800d97d   Thumb Code    50  comcmd.o(.text)
    Get_Extvar                               0x0800d9af   Thumb Code    28  comcmd.o(.text)
    Set_Permission_Period                    0x0800d9cb   Thumb Code    52  comcmd.o(.text)
    Get_Permission_Period                    0x0800d9ff   Thumb Code    12  comcmd.o(.text)
    Set_Passage_Time_Enable                  0x0800da0b   Thumb Code    52  comcmd.o(.text)
    Set_Passage_Time                         0x0800da3f   Thumb Code    52  comcmd.o(.text)
    Get_Passage_Time                         0x0800da73   Thumb Code    12  comcmd.o(.text)
    Set_Holiday_Vacations                    0x0800da7f   Thumb Code    52  comcmd.o(.text)
    Get_Holiday_Vacations                    0x0800dab3   Thumb Code    12  comcmd.o(.text)
    TEST_GQ                                  0x0800dabf   Thumb Code    20  comcmd.o(.text)
    Set_Sub_Maximum_Limit                    0x0800dad3   Thumb Code    30  comcmd.o(.text)
    Get_Sub_Maximum_Limit                    0x0800daf1   Thumb Code    12  comcmd.o(.text)
    Set_Machine_Category                     0x0800dafd   Thumb Code    30  comcmd.o(.text)
    Get_Machine_Category                     0x0800db1b   Thumb Code    12  comcmd.o(.text)
    Set_Fixed_consumption_Timer              0x0800db27   Thumb Code    30  comcmd.o(.text)
    Get_Fixed_consumption_Timer              0x0800db45   Thumb Code    12  comcmd.o(.text)
    Set_Fixed_consumption_Money              0x0800db51   Thumb Code    30  comcmd.o(.text)
    Get_Fixed_consumption_Money              0x0800db6f   Thumb Code    12  comcmd.o(.text)
    Set_Carte_Consum_Money                   0x0800db7b   Thumb Code    30  comcmd.o(.text)
    Get_Carte_Consum_Money                   0x0800db99   Thumb Code    12  comcmd.o(.text)
    Query_Balance_Return                     0x0800dba5   Thumb Code   378  comcmd.o(.text)
    Get_Total_Consumption                    0x0800dd1f   Thumb Code    12  comcmd.o(.text)
    Set_Clean_Total_Consumption              0x0800dd2b   Thumb Code    38  comcmd.o(.text)
    Get_GPS_Information                      0x0800dd51   Thumb Code   124  comcmd.o(.text)
    AutoUP_GPS_Information                   0x0800ddcd   Thumb Code   156  comcmd.o(.text)
    Get_IMEI_IMSI_Machno                     0x0800de69   Thumb Code    54  comcmd.o(.text)
    Set_IAP_Start_Update                     0x0800de9f   Thumb Code    46  comcmd.o(.text)
    Set_Handle_IAP_Data                      0x0800decd   Thumb Code    56  comcmd.o(.text)
    Set_Check_IAP_END_Updata                 0x0800df05   Thumb Code    60  comcmd.o(.text)
    Get_IAP_Read_Data                        0x0800df41   Thumb Code   276  comcmd.o(.text)
    Set_IAP_Updata_OK                        0x0800e055   Thumb Code    22  comcmd.o(.text)
    InitCombuff                              0x0800e06b   Thumb Code    24  comcmd.o(.text)
    Process_com_data                         0x0800e083   Thumb Code   998  comcmd.o(.text)
    ProcessRS485                             0x0800e469   Thumb Code   158  comcmd.o(.text)
    SaveGroupCount                           0x0800e529   Thumb Code    40  name.o(.text)
    GetGroupCount                            0x0800e551   Thumb Code    34  name.o(.text)
    SaveCommCount                            0x0800e573   Thumb Code    32  name.o(.text)
    GetCommCount                             0x0800e593   Thumb Code    28  name.o(.text)
    GetGroupAddress                          0x0800e5af   Thumb Code    14  name.o(.text)
    InitName                                 0x0800e5bd   Thumb Code    12  name.o(.text)
    MakeGroup                                0x0800e5c9   Thumb Code    68  name.o(.text)
    FindCardno                               0x0800e60d   Thumb Code   160  name.o(.text)
    AddCardno                                0x0800e6ad   Thumb Code   106  name.o(.text)
    CommFindCardno                           0x0800e717   Thumb Code   134  name.o(.text)
    DelCardno                                0x0800e79d   Thumb Code   214  name.o(.text)
    DelAllCardno                             0x0800e873   Thumb Code    46  name.o(.text)
    DelOneCardno                             0x0800e8a1   Thumb Code    36  name.o(.text)
    AddOneCardno                             0x0800e8c5   Thumb Code    46  name.o(.text)
    ProcessCard                              0x0800e91d   Thumb Code   406  cardprocess.o(.text)
    ReadSectionData                          0x0800eab3   Thumb Code   178  cardprocess.o(.text)
    FindICCard                               0x0800eb65   Thumb Code   116  cardprocess.o(.text)
    CheckCard                                0x0800ebd9   Thumb Code    86  cardprocess.o(.text)
    Check_Card_Limit                         0x0800ec2f   Thumb Code   166  cardprocess.o(.text)
    WP_ProcessCard                           0x0800ecd5   Thumb Code   444  cardprocess.o(.text)
    ProcessSettingByCard                     0x0800ee91   Thumb Code     2  cardprocess.o(.text)
    InitPassword                             0x0800eeb9   Thumb Code    38  pass.o(.text)
    SetPassword                              0x0800eedf   Thumb Code    58  pass.o(.text)
    GetPassword                              0x0800ef19   Thumb Code    16  pass.o(.text)
    GetIsectiond                             0x0800ef29   Thumb Code    16  pass.o(.text)
    LoadnEC20DefaultValue                    0x0800ef41   Thumb Code    30  default.o(.text)
    LoadDefaultValue                         0x0800ef5f   Thumb Code    16  default.o(.text)
    LoadnNetDefaultValue                     0x0800ef6f   Thumb Code    52  default.o(.text)
    Initnewdate_addr                         0x0800efa3   Thumb Code    32  default.o(.text)
    InitRecord                               0x0800eff1   Thumb Code    46  record.o(.text)
    SaveRecordCount                          0x0800f01f   Thumb Code    40  record.o(.text)
    InitActual_CardCount                     0x0800f047   Thumb Code    26  record.o(.text)
    InitOperation_CommCount                  0x0800f061   Thumb Code    26  record.o(.text)
    InitErr_CardCount                        0x0800f07b   Thumb Code    26  record.o(.text)
    SaveActual_CardCount                     0x0800f095   Thumb Code    32  record.o(.text)
    SaveErr_CardCount                        0x0800f0b5   Thumb Code    32  record.o(.text)
    SaveOperation_CommCount                  0x0800f0d5   Thumb Code    32  record.o(.text)
    SaveRecordcount_Err                      0x0800f0f5   Thumb Code    36  record.o(.text)
    InitRecordcount_Err                      0x0800f119   Thumb Code    58  record.o(.text)
    DelRecord                                0x0800f153   Thumb Code    98  record.o(.text)
    Init_UpdataRecord                        0x0800f1b5   Thumb Code    26  record.o(.text)
    Save_UpdataRecordCount                   0x0800f1cf   Thumb Code    22  record.o(.text)
    Del_UpdataRecord                         0x0800f1e5   Thumb Code    14  record.o(.text)
    Arrange_Record                           0x0800f1f3   Thumb Code   350  record.o(.text)
    Add_UpdataRecord                         0x0800f351   Thumb Code   132  record.o(.text)
    AddRecord                                0x0800f3d5   Thumb Code   420  record.o(.text)
    UPloadRecord                             0x0800f579   Thumb Code   106  record.o(.text)
    DelUPloadRecord                          0x0800f5e3   Thumb Code   110  record.o(.text)
    InitMachno                               0x0800f6c1   Thumb Code    24  mach.o(.text)
    SaveMachno                               0x0800f6d9   Thumb Code    44  mach.o(.text)
    gettimetobcd                             0x0800f70d   Thumb Code    34  cardrw.o(.text)
    Set_Time_slot_1                          0x0800f72f   Thumb Code    82  cardrw.o(.text)
    Time_interval_fun                        0x0800f781   Thumb Code   102  cardrw.o(.text)
    Debit_fun                                0x0800f7e7   Thumb Code   140  cardrw.o(.text)
    AnalyzeSectionData                       0x0800f873   Thumb Code    54  cardrw.o(.text)
    BlockWrite                               0x0800f8a9   Thumb Code    64  cardrw.o(.text)
    WriteBlock1                              0x0800f8e9   Thumb Code    62  cardrw.o(.text)
    ProcessICCard                            0x0800f927   Thumb Code    20  cardrw.o(.text)
    Back_SaveGroupCount                      0x0800f985   Thumb Code    42  blackname.o(.text)
    Back_GetGroupCount                       0x0800f9af   Thumb Code    38  blackname.o(.text)
    Back_SaveCommCount                       0x0800f9d5   Thumb Code    34  blackname.o(.text)
    Back_GetCommCount                        0x0800f9f7   Thumb Code    30  blackname.o(.text)
    Back_GetGroupAddress                     0x0800fa15   Thumb Code    12  blackname.o(.text)
    Back_InitName                            0x0800fa21   Thumb Code    12  blackname.o(.text)
    Back_MakeGroup                           0x0800fa2d   Thumb Code    68  blackname.o(.text)
    Back_FindCardno                          0x0800fa71   Thumb Code   138  blackname.o(.text)
    Back_AddCardno                           0x0800fafb   Thumb Code    98  blackname.o(.text)
    Back_AddOneCardno                        0x0800fb5d   Thumb Code    36  blackname.o(.text)
    Back_CommFindCardno                      0x0800fb81   Thumb Code   126  blackname.o(.text)
    Back_DelCardno                           0x0800fbff   Thumb Code   188  blackname.o(.text)
    Back_DelAllCardno                        0x0800fcbb   Thumb Code    48  blackname.o(.text)
    Back_DelOneCardno                        0x0800fceb   Thumb Code    36  blackname.o(.text)
    Time_Interval_Detection                  0x0800fd31   Thumb Code    98  interval.o(.text)
    Check_Passage_Enable                     0x0800fd93   Thumb Code    28  interval.o(.text)
    Channel_Time_Detection                   0x0800fdaf   Thumb Code    74  interval.o(.text)
    Holiday_Detection                        0x0800fdf9   Thumb Code   150  interval.o(.text)
    HolidayTime_Interval_Detection           0x0800fe8f   Thumb Code   104  interval.o(.text)
    InitTime_Interval_Detection              0x0800fef7   Thumb Code    22  interval.o(.text)
    InitPassage_Time                         0x0800ff0d   Thumb Code    22  interval.o(.text)
    InitPassage_TimeEnable                   0x0800ff23   Thumb Code    22  interval.o(.text)
    InitHoliday_Vacations                    0x0800ff39   Thumb Code    22  interval.o(.text)
    get4g_rebuff                             0x0800ff85   Thumb Code     4  ec20fun.o(.text)
    Process4G_Commu                          0x0800ff89   Thumb Code   236  ec20fun.o(.text)
    Init_EC20_Remote_IP                      0x08010075   Thumb Code   120  ec20fun.o(.text)
    getQR_rebuff                             0x08010135   Thumb Code     4  qr_code.o(.text)
    QR_SendString                            0x08010139   Thumb Code    42  qr_code.o(.text)
    QR_SendByte                              0x08010163   Thumb Code    28  qr_code.o(.text)
    cleanQR_bcrebuff                         0x0801017f   Thumb Code    30  qr_code.o(.text)
    InitQRCombuff                            0x0801019d   Thumb Code    18  qr_code.o(.text)
    ProcessQR_ICRead                         0x080101af   Thumb Code    24  qr_code.o(.text)
    ProcessQR_QRRead                         0x080101c7   Thumb Code   138  qr_code.o(.text)
    ProcessQR_Commu                          0x08010251   Thumb Code   216  qr_code.o(.text)
    TX_L                                     0x08010385   Thumb Code    14  speak.o(.text)
    TX_H                                     0x08010393   Thumb Code    14  speak.o(.text)
    SPEAK_USART_TX_init                      0x080103a1   Thumb Code    50  speak.o(.text)
    MUSART1_SendData                         0x080103d3   Thumb Code    70  speak.o(.text)
    SPEAKUART_SendString                     0x08010419   Thumb Code    26  speak.o(.text)
    SYN6288_Send                             0x08010433   Thumb Code    86  speak.o(.text)
    SC50X0_SDA                               0x08010489   Thumb Code   108  speak.o(.text)
    Init_Heartbeat                           0x08010505   Thumb Code    14  heartbeat.o(.text)
    Heartbeat_Send                           0x08010513   Thumb Code   104  heartbeat.o(.text)
    Lcds_Config                              0x080105a1   Thumb Code    32  lcd12864.o(.text)
    Delaynms                                 0x080105c1   Thumb Code    26  lcd12864.o(.text)
    Send_Byte                                0x080105db   Thumb Code    82  lcd12864.o(.text)
    Write_Char                               0x0801062d   Thumb Code    70  lcd12864.o(.text)
    Lcd_Init                                 0x08010673   Thumb Code    42  lcd12864.o(.text)
    Clr_Scr                                  0x0801069d   Thumb Code    12  lcd12864.o(.text)
    LCD_Set_XY                               0x080106a9   Thumb Code    80  lcd12864.o(.text)
    LCD_Write_String                         0x080106f9   Thumb Code    42  lcd12864.o(.text)
    LCD_Write_String_NUM                     0x08010723   Thumb Code    48  lcd12864.o(.text)
    LCD_Write_Number                         0x08010753   Thumb Code    22  lcd12864.o(.text)
    Display_Img                              0x08010769   Thumb Code   280  lcd12864.o(.text)
    Delay_Lcd                                0x08010881   Thumb Code    14  lcd12864.o(.text)
    Clear_Standby_Display                    0x08010899   Thumb Code    12  lcd12864_config.o(.text)
    Clear_Standby_Display_Time               0x080108a5   Thumb Code    40  lcd12864_config.o(.text)
    EndClear_Pay_Card_Data                   0x080108cd   Thumb Code     2  lcd12864_config.o(.text)
    LCD12864_Standby                         0x080108cf   Thumb Code   232  lcd12864_config.o(.text)
    LCD12864_ShowKeyValue                    0x080109b7   Thumb Code   176  lcd12864_config.o(.text)
    LCD12864_ShowPlay_Card                   0x08010a67   Thumb Code  1088  lcd12864_config.o(.text)
    LCD12864_Show_Consump_Pattern            0x08010ea7   Thumb Code   202  lcd12864_config.o(.text)
    LCD12864_Show_NoNet                      0x08010f71   Thumb Code   126  lcd12864_config.o(.text)
    ProcessReal_time_upload                  0x080110d5   Thumb Code   530  upload.o(.text)
    dtmelay                                  0x0801133d   Thumb Code    24  tm1650.o(.text)
    TM16_SDA_IN                              0x08011355   Thumb Code    30  tm1650.o(.text)
    TM16_SDA_OUT                             0x08011373   Thumb Code    30  tm1650.o(.text)
    TM16_IIC_Start                           0x08011391   Thumb Code    48  tm1650.o(.text)
    TM16_IIC_Stop                            0x080113c1   Thumb Code    48  tm1650.o(.text)
    TM16_Read_ACK                            0x080113f1   Thumb Code    54  tm1650.o(.text)
    TM16_Send_ACK                            0x08011427   Thumb Code    54  tm1650.o(.text)
    TM16_Send_Byte                           0x0801145d   Thumb Code    92  tm1650.o(.text)
    TM16_Read_Byte                           0x080114b9   Thumb Code   122  tm1650.o(.text)
    TM16_Write_REG                           0x08011533   Thumb Code    28  tm1650.o(.text)
    TM16_Set_Brig                            0x0801154f   Thumb Code    24  tm1650.o(.text)
    TM16_INIT                                0x08011567   Thumb Code    50  tm1650.o(.text)
    TM1650_FD650_READ                        0x08011599   Thumb Code    28  tm1650.o(.text)
    tmKeyscan                                0x080115b5   Thumb Code   178  tm1650.o(.text)
    SaveMachine_Category                     0x08011679   Thumb Code    28  consum_config.o(.text)
    SaveFixed_consumption_Money              0x08011695   Thumb Code    14  consum_config.o(.text)
    SaveFixed_consumption_Timer              0x080116a3   Thumb Code    16  consum_config.o(.text)
    InitFixed_consumption_Money              0x080116b3   Thumb Code    14  consum_config.o(.text)
    InitConsumption_All_Money                0x080116c1   Thumb Code    16  consum_config.o(.text)
    SaveConsumption_All_Money                0x080116d1   Thumb Code    16  consum_config.o(.text)
    DeleteConsumption_All_Money              0x080116e1   Thumb Code    30  consum_config.o(.text)
    InitFixed_consumption_Timer              0x080116ff   Thumb Code    16  consum_config.o(.text)
    SaveCarte_consum_Money                   0x0801170f   Thumb Code    16  consum_config.o(.text)
    InitCarte_consum_Money                   0x0801171f   Thumb Code    16  consum_config.o(.text)
    SaveSub_Maximum_Limit                    0x0801172f   Thumb Code    16  consum_config.o(.text)
    InitSub_Maximum_Limit                    0x0801173f   Thumb Code    16  consum_config.o(.text)
    Consum_Time_Detection                    0x0801174f   Thumb Code    80  consum_config.o(.text)
    app_srand                                0x080117c1   Thumb Code     6  iap_updata.o(.text)
    app_get_rand                             0x080117c7   Thumb Code    30  iap_updata.o(.text)
    False_Random_number                      0x080117e5   Thumb Code    30  iap_updata.o(.text)
    write_flash                              0x08011803   Thumb Code    38  iap_updata.o(.text)
    Check_IAP_Start_Updata                   0x08011829   Thumb Code    76  iap_updata.o(.text)
    Handle_IAP_Data                          0x08011875   Thumb Code   174  iap_updata.o(.text)
    Check_IAP_END_Updata                     0x08011923   Thumb Code    26  iap_updata.o(.text)
    IAP_Read_Data                            0x0801193d   Thumb Code     2  iap_updata.o(.text)
    IAP_OK_System_Boot                       0x0801193f   Thumb Code    60  iap_updata.o(.text)
    Clear_IAP_OK_System_Boot                 0x0801197b   Thumb Code    90  iap_updata.o(.text)
    SoftReset                                0x080119d5   Thumb Code    38  iap_updata.o(.text)
    Menu_key_set                             0x08011a49   Thumb Code   684  menu.o(.text)
    fun0                                     0x08011cf5   Thumb Code    66  menu.o(.text)
    fun1                                     0x08011d37   Thumb Code    22  menu.o(.text)
    fun2                                     0x08011d4d   Thumb Code    26  menu.o(.text)
    fun3                                     0x08011d67   Thumb Code    24  menu.o(.text)
    fun4                                     0x08011d7f   Thumb Code    58  menu.o(.text)
    fun5                                     0x08011db9   Thumb Code    50  menu.o(.text)
    fun6                                     0x08011deb   Thumb Code     2  menu.o(.text)
    fun7                                     0x08011ded   Thumb Code    26  menu.o(.text)
    fun8                                     0x08011e07   Thumb Code    34  menu.o(.text)
    fun9                                     0x08011e29   Thumb Code   168  menu.o(.text)
    fun10                                    0x08011ed1   Thumb Code    94  menu.o(.text)
    fun11                                    0x08011f2f   Thumb Code     2  menu.o(.text)
    fun12                                    0x08011f31   Thumb Code    98  menu.o(.text)
    fun13                                    0x08011f93   Thumb Code   108  menu.o(.text)
    fun14                                    0x08011fff   Thumb Code   496  menu.o(.text)
    fun15                                    0x080121ef   Thumb Code    94  menu.o(.text)
    fun16                                    0x0801224d   Thumb Code     2  menu.o(.text)
    fun17                                    0x0801224f   Thumb Code    26  menu.o(.text)
    fun18                                    0x08012269   Thumb Code    34  menu.o(.text)
    fun19                                    0x0801228b   Thumb Code   284  menu.o(.text)
    fun20                                    0x080123a7   Thumb Code    94  menu.o(.text)
    fun21                                    0x08012405   Thumb Code     2  menu.o(.text)
    fun22                                    0x08012407   Thumb Code    26  menu.o(.text)
    fun23                                    0x08012421   Thumb Code    34  menu.o(.text)
    fun24                                    0x08012443   Thumb Code    66  menu.o(.text)
    fun25                                    0x08012485   Thumb Code    94  menu.o(.text)
    fun26                                    0x080124e3   Thumb Code     2  menu.o(.text)
    fun27                                    0x080124e5   Thumb Code   152  menu.o(.text)
    fun28                                    0x0801257d   Thumb Code   166  menu.o(.text)
    fun29                                    0x08012623   Thumb Code   588  menu.o(.text)
    fun30                                    0x0801286f   Thumb Code    94  menu.o(.text)
    fun31                                    0x080128cd   Thumb Code     2  menu.o(.text)
    fun32                                    0x080128cf   Thumb Code    26  menu.o(.text)
    fun33                                    0x080128e9   Thumb Code    34  menu.o(.text)
    fun34                                    0x0801290b   Thumb Code    42  menu.o(.text)
    fun35                                    0x08012935   Thumb Code    94  menu.o(.text)
    fun36                                    0x08012993   Thumb Code     2  menu.o(.text)
    fun37                                    0x08012995   Thumb Code    26  menu.o(.text)
    fun38                                    0x080129af   Thumb Code    34  menu.o(.text)
    fun39                                    0x080129d1   Thumb Code    42  menu.o(.text)
    fun40                                    0x080129fb   Thumb Code    94  menu.o(.text)
    fun41                                    0x08012a59   Thumb Code     2  menu.o(.text)
    fun42                                    0x08012a5b   Thumb Code    26  menu.o(.text)
    fun43                                    0x08012a75   Thumb Code    34  menu.o(.text)
    fun44                                    0x08012a97   Thumb Code    42  menu.o(.text)
    fun45                                    0x08012ac1   Thumb Code   152  menu.o(.text)
    fun46                                    0x08012b59   Thumb Code     2  menu.o(.text)
    fun47                                    0x08012b5b   Thumb Code    26  menu.o(.text)
    fun48                                    0x08012b75   Thumb Code    34  menu.o(.text)
    fun49                                    0x08012b97   Thumb Code    42  menu.o(.text)
    fun50                                    0x08012bc1   Thumb Code    94  menu.o(.text)
    fun51                                    0x08012c1f   Thumb Code     2  menu.o(.text)
    fun52                                    0x08012c21   Thumb Code     2  menu.o(.text)
    fun53                                    0x08012c23   Thumb Code     2  menu.o(.text)
    fun54                                    0x08012c25   Thumb Code     2  menu.o(.text)
    fun55                                    0x08012c27   Thumb Code     2  menu.o(.text)
    fun56                                    0x08012c29   Thumb Code     2  menu.o(.text)
    fun57                                    0x08012c2b   Thumb Code     2  menu.o(.text)
    fun58                                    0x08012c2d   Thumb Code     2  menu.o(.text)
    fun59                                    0x08012c2f   Thumb Code     2  menu.o(.text)
    fun60                                    0x08012c31   Thumb Code     2  menu.o(.text)
    fun81                                    0x08012c33   Thumb Code    36  menu.o(.text)
    fun82                                    0x08012c57   Thumb Code     2  menu.o(.text)
    fun83                                    0x08012c59   Thumb Code     2  menu.o(.text)
    fun84                                    0x08012c5b   Thumb Code   108  menu.o(.text)
    fun85                                    0x08012cc7   Thumb Code    50  menu.o(.text)
    fun86                                    0x08012cf9   Thumb Code     2  menu.o(.text)
    fun87                                    0x08012cfb   Thumb Code     2  menu.o(.text)
    fun88                                    0x08012cfd   Thumb Code     2  menu.o(.text)
    fun89                                    0x08012cff   Thumb Code     2  menu.o(.text)
    fun90                                    0x08012d01   Thumb Code     2  menu.o(.text)
    exitbutton                               0x08012d03   Thumb Code    50  menu.o(.text)
    enterbutton                              0x08012d35   Thumb Code    50  menu.o(.text)
    outmenu                                  0x08012d67   Thumb Code    10  menu.o(.text)
    Show_Menudata                            0x08012dc1   Thumb Code   478  menufun.o(.text)
    W5500_GPIO_Configuration                 0x08012ff9   Thumb Code   100  w5500.o(.text)
    W5500_NVIC_Configuration                 0x0801305d   Thumb Code    32  w5500.o(.text)
    EXTI9_5_IRQHandler                       0x0801307d   Thumb Code    24  w5500.o(.text)
    SPI_Configuration                        0x08013095   Thumb Code   168  w5500.o(.text)
    SPI2_Send_Byte                           0x0801313d   Thumb Code    28  w5500.o(.text)
    SPI2_Send_Short                          0x08013159   Thumb Code    28  w5500.o(.text)
    Write_W5500_1Byte                        0x08013175   Thumb Code    46  w5500.o(.text)
    Write_W5500_2Byte                        0x080131a3   Thumb Code    46  w5500.o(.text)
    Write_W5500_nByte                        0x080131d1   Thumb Code    66  w5500.o(.text)
    Write_W5500_SOCK_1Byte                   0x08013213   Thumb Code    58  w5500.o(.text)
    Write_W5500_SOCK_2Byte                   0x0801324d   Thumb Code    58  w5500.o(.text)
    Write_W5500_SOCK_4Byte                   0x08013287   Thumb Code    84  w5500.o(.text)
    Read_W5500_1Byte                         0x080132db   Thumb Code    62  w5500.o(.text)
    Read_W5500_SOCK_1Byte                    0x08013319   Thumb Code    74  w5500.o(.text)
    Read_W5500_SOCK_2Byte                    0x08013363   Thumb Code    98  w5500.o(.text)
    Read_SOCK_Data_Buffer                    0x080133c5   Thumb Code   316  w5500.o(.text)
    Write_SOCK_Data_Buffer                   0x08013501   Thumb Code   264  w5500.o(.text)
    W5500_Hardware_Reset                     0x08013609   Thumb Code    32  w5500.o(.text)
    W5500_Init                               0x08013629   Thumb Code   156  w5500.o(.text)
    Detect_Gateway                           0x080136c5   Thumb Code   196  w5500.o(.text)
    Socket_Init                              0x08013789   Thumb Code   260  w5500.o(.text)
    Socket_Connect                           0x0801388d   Thumb Code    70  w5500.o(.text)
    Socket_Listen                            0x080138d3   Thumb Code   102  w5500.o(.text)
    Socket_UDP                               0x08013939   Thumb Code    60  w5500.o(.text)
    W5500_Interrupt_Process                  0x08013975   Thumb Code   444  w5500.o(.text)
    W5500_Initialization                     0x08013b51   Thumb Code    44  w5500_config.o(.text)
    Load_Net_Parameters                      0x08013b7d   Thumb Code   166  w5500_config.o(.text)
    W5500_Socket_Set                         0x08013c23   Thumb Code   290  w5500_config.o(.text)
    Process_Socket_Data                      0x08013d45   Thumb Code    36  w5500_config.o(.text)
    Process_Socket_PROT0_Send                0x08013d69   Thumb Code    38  w5500_config.o(.text)
    Process_Socket_PROT1_Send                0x08013d8f   Thumb Code    38  w5500_config.o(.text)
    Process_Socket_PROT0_Receive             0x08013db5   Thumb Code    30  w5500_config.o(.text)
    Process_Socket_PROT1_Receive             0x08013dd3   Thumb Code    30  w5500_config.o(.text)
    Process_Socket_PROT2_Receive             0x08013df1   Thumb Code    74  w5500_config.o(.text)
    Timer2_Init_Config                       0x08013e3b   Thumb Code    64  w5500_config.o(.text)
    NVIC_Configuration                       0x08013e7b   Thumb Code    44  w5500_config.o(.text)
    System_Initialization                    0x08013ea7   Thumb Code    20  w5500_config.o(.text)
    W5500_SYSTEM_Init                        0x08013ebb   Thumb Code    20  w5500_config.o(.text)
    W5500_System_Program                     0x08013ecf   Thumb Code   102  w5500_config.o(.text)
    TIM2_IRQHandler                          0x08013f35   Thumb Code   160  w5500_config.o(.text)
    Delay                                    0x08013fd5   Thumb Code    18  w5500_config.o(.text)
    InitTcpClient                            0x08013fed   Thumb Code    14  rj45cmd.o(.text)
    CheckTCPClientData                       0x08013ffb   Thumb Code   106  rj45cmd.o(.text)
    ProcessTCPClient                         0x08014065   Thumb Code    42  rj45cmd.o(.text)
    InitTcpServer                            0x0801408f   Thumb Code    14  rj45cmd.o(.text)
    CheckTCPServerData                       0x0801409d   Thumb Code   106  rj45cmd.o(.text)
    ProcessTCPServer                         0x08014107   Thumb Code    42  rj45cmd.o(.text)
    ProcessUDPClient                         0x08014131   Thumb Code   136  rj45cmd.o(.text)
    reboot                                   0x080141b9   Thumb Code    12  rj45cmd.o(.text)
    InitLocalIPGateway                       0x080141c5   Thumb Code   130  rj45cmd.o(.text)
    InitRemoteIPandPORT                      0x08014247   Thumb Code   100  rj45cmd.o(.text)
    Init_MAC_Address                         0x080142ab   Thumb Code   100  rj45cmd.o(.text)
    TimeDelay                                0x08014379   Thumb Code    22  lcd_dis.o(.text)
    Delay_40US                               0x0801438f   Thumb Code    26  lcd_dis.o(.text)
    delay2                                   0x080143a9   Thumb Code    20  lcd_dis.o(.text)
    GetKey                                   0x080143bd   Thumb Code     4  lcd_dis.o(.text)
    LedON                                    0x080143c1   Thumb Code     2  lcd_dis.o(.text)
    LCD_Config                               0x080143c3   Thumb Code    32  lcd_dis.o(.text)
    LCD_Init                                 0x080143e3   Thumb Code    40  lcd_dis.o(.text)
    SPI_SSSet                                0x0801440b   Thumb Code   102  lcd_dis.o(.text)
    SPI_Send                                 0x08014471   Thumb Code    84  lcd_dis.o(.text)
    PutString                                0x080144c5   Thumb Code    82  lcd_dis.o(.text)
    PutString_cn                             0x08014517   Thumb Code    90  lcd_dis.o(.text)
    ClrScreen                                0x08014571   Thumb Code    28  lcd_dis.o(.text)
    SetBG_Color                              0x0801458d   Thumb Code    50  lcd_dis.o(.text)
    SetFG_Color                              0x080145bf   Thumb Code    50  lcd_dis.o(.text)
    PutBitmap                                0x080145f1   Thumb Code    64  lcd_dis.o(.text)
    SetDisplayOnOff                          0x08014631   Thumb Code    40  lcd_dis.o(.text)
    SetDisplayInvert                         0x08014659   Thumb Code    40  lcd_dis.o(.text)
    SetWindows                               0x08014681   Thumb Code    98  lcd_dis.o(.text)
    SetFontType                              0x080146e3   Thumb Code    42  lcd_dis.o(.text)
    DrawPoint                                0x0801470d   Thumb Code    82  lcd_dis.o(.text)
    DrawLine                                 0x0801475f   Thumb Code   130  lcd_dis.o(.text)
    DrawRect                                 0x080147e1   Thumb Code   128  lcd_dis.o(.text)
    DrawIcon                                 0x08014861   Thumb Code    74  lcd_dis.o(.text)
    DrawTranIcon                             0x080148ab   Thumb Code    90  lcd_dis.o(.text)
    DrawQRCODE                               0x08014905   Thumb Code    90  lcd_dis.o(.text)
    LCD_Standby                              0x08014961   Thumb Code   694  lcd_config.o(.text)
    LCD_ShowPlay_Card                        0x08014c17   Thumb Code  1504  lcd_config.o(.text)
    ShowKeyValue_Plus                        0x080151f7   Thumb Code   848  lcd_config.o(.text)
    LCD_ShowKeyValue                         0x08015547   Thumb Code   166  lcd_config.o(.text)
    LCD_Show_Consump_Pattern                 0x080155ed   Thumb Code   234  lcd_config.o(.text)
    LCD_Disp_MenuPassword                    0x080156d7   Thumb Code   218  lcd_config.o(.text)
    LCD_Disp_MenuMain                        0x080157b1   Thumb Code   434  lcd_config.o(.text)
    LCD_Disp_Function                        0x08015963   Thumb Code  6804  lcd_config.o(.text)
    LCD_Disp_Query_Money                     0x080173f7   Thumb Code    24  lcd_config.o(.text)
    LCD_Disp_Refund_Money                    0x0801740f   Thumb Code   312  lcd_config.o(.text)
    CalculateCRC_1                           0x080176cd   Thumb Code    86  crc.o(.text)
    CalculateCRC                             0x08017723   Thumb Code    74  crc.o(.text)
    iap_write_appbin                         0x08017779   Thumb Code    98  iap.o(.text)
    iap_load_app                             0x080177db   Thumb Code    36  iap.o(.text)
    __use_no_semihosting                     0x0801780d   Thumb Code     2  use_no_semi_2.o(.text)
    toupper                                  0x0801780f   Thumb Code    30  toupper.o(.text)
    strstr                                   0x0801782d   Thumb Code    36  strstr.o(.text)
    __aeabi_memcpy                           0x08017851   Thumb Code     0  rt_memcpy_v6.o(.text)
    __rt_memcpy                              0x08017851   Thumb Code   138  rt_memcpy_v6.o(.text)
    _memcpy_lastbytes                        0x080178b7   Thumb Code     0  rt_memcpy_v6.o(.text)
    __aeabi_memcpy4                          0x080178db   Thumb Code     0  rt_memcpy_w.o(.text)
    __aeabi_memcpy8                          0x080178db   Thumb Code     0  rt_memcpy_w.o(.text)
    __rt_memcpy_w                            0x080178db   Thumb Code   100  rt_memcpy_w.o(.text)
    _memcpy_lastbytes_aligned                0x08017923   Thumb Code     0  rt_memcpy_w.o(.text)
    __aeabi_memclr                           0x0801793f   Thumb Code     0  rt_memclr.o(.text)
    __rt_memclr                              0x0801793f   Thumb Code    68  rt_memclr.o(.text)
    _memset                                  0x08017943   Thumb Code     0  rt_memclr.o(.text)
    __aeabi_memclr4                          0x08017983   Thumb Code     0  rt_memclr_w.o(.text)
    __aeabi_memclr8                          0x08017983   Thumb Code     0  rt_memclr_w.o(.text)
    __rt_memclr_w                            0x08017983   Thumb Code    78  rt_memclr_w.o(.text)
    _memset_w                                0x08017987   Thumb Code     0  rt_memclr_w.o(.text)
    __use_two_region_memory                  0x080179d1   Thumb Code     2  heapauxi.o(.text)
    __rt_heap_escrow$2region                 0x080179d3   Thumb Code     2  heapauxi.o(.text)
    __rt_heap_expand$2region                 0x080179d5   Thumb Code     2  heapauxi.o(.text)
    __I$use$semihosting                      0x080179d7   Thumb Code     0  use_no_semi.o(.text)
    __use_no_semihosting_swi                 0x080179d7   Thumb Code     2  use_no_semi.o(.text)
    __rt_ctype_table                         0x080179d9   Thumb Code    16  rt_ctype_table.o(.text)
    __rt_locale                              0x080179e9   Thumb Code     8  rt_locale_intlibspace.o(.text)
    __user_libspace                          0x080179f1   Thumb Code     8  libspace.o(.text)
    __user_perproc_libspace                  0x080179f1   Thumb Code     0  libspace.o(.text)
    __user_perthread_libspace                0x080179f1   Thumb Code     0  libspace.o(.text)
    __user_setup_stackheap                   0x080179f9   Thumb Code    74  sys_stackheap_outer.o(.text)
    exit                                     0x08017a43   Thumb Code    18  exit.o(.text)
    strcmp                                   0x08017a55   Thumb Code   128  strcmpv7m.o(.text)
    _get_lc_ctype                            0x08017ad5   Thumb Code    44  lc_ctype_c.o(locale$$code)
    Region$$Table$$Base                      0x08017eb8   Number         0  anon$$obj.o(Region$$Table)
    Region$$Table$$Limit                     0x08017ed8   Number         0  anon$$obj.o(Region$$Table)
    __ctype                                  0x08017ee5   Data           0  lc_ctype_c.o(locale$$data)
    SystemCoreClock                          0x20000000   Data           4  system_stm32f10x.o(.data)
    AHBPrescTable                            0x20000004   Data          16  system_stm32f10x.o(.data)
    timerdelay                               0x20000018   Data           1  timer.o(.data)
    timerdelaysec                            0x20000019   Data           1  timer.o(.data)
    wg1cycle                                 0x20000020   Data           1  wg1.o(.data)
    wg1idx                                   0x20000021   Data           1  wg1.o(.data)
    wg2cycle                                 0x2000002c   Data           1  wg2.o(.data)
    wg2idx                                   0x2000002d   Data           1  wg2.o(.data)
    AT_QIOPEN_IP                             0x20000038   Data          50  ec20.o(.data)
    s_stRetData                              0x2000006a   Data           2  ec20.o(.data)
    g_u16OverTimeCnt                         0x2000006c   Data           2  ec20.o(.data)
    AT_InterOverTimeCnt                      0x2000006e   Data           2  ec20.o(.data)
    g_u8RxIndexW                             0x20000070   Data           2  ec20.o(.data)
    EC20GPSLEN                               0x20000074   Data           2  ec20.o(.data)
    __stdout                                 0x20000080   Data           4  usart.o(.data)
    USART_RX_STA                             0x20000084   Data           2  usart.o(.data)
    USART1_RX_CRLF                           0x20000086   Data           1  usart.o(.data)
    time_buf                                 0x200000a4   Data           8  ds1302.o(.data)
    time_buftx                               0x200000ac   Data           8  ds1302.o(.data)
    showStandby                              0x200000b8   Data           1  sysvar.o(.data)
    Standbycount                             0x200000bc   Data           4  sysvar.o(.data)
    Standbytime                              0x200000c0   Data           4  sysvar.o(.data)
    showtime                                 0x200000c4   Data           1  sysvar.o(.data)
    timecount                                0x200000c8   Data           4  sysvar.o(.data)
    sys_status                               0x200000cc   Data           1  sysvar.o(.data)
    statuscnt                                0x200000d0   Data           4  sysvar.o(.data)
    keyVal                                   0x200000d4   Data           1  sysvar.o(.data)
    cycle                                    0x200000d5   Data           1  sysvar.o(.data)
    output1state                             0x200000d8   Data           4  sysvar.o(.data)
    output1time                              0x200000dc   Data           4  sysvar.o(.data)
    output2state                             0x200000e0   Data           4  sysvar.o(.data)
    output2time                              0x200000e4   Data           4  sysvar.o(.data)
    badd                                     0x200000e8   Data           4  sysvar.o(.data)
    bdel                                     0x200000ec   Data           4  sysvar.o(.data)
    idbuff                                   0x200000f0   Data           4  sysvar.o(.data)
    ICidbuff                                 0x200000f4   Data           4  sysvar.o(.data)
    inPCOM                                   0x200000f8   Data           4  sysvar.o(.data)
    repea_time                               0x200000fc   Data           1  sysvar.o(.data)
    output_time                              0x200000fd   Data           1  sysvar.o(.data)
    whiteallow                               0x200000fe   Data           1  sysvar.o(.data)
    interval_time                            0x200000ff   Data           1  sysvar.o(.data)
    Show_Refresh_coun                        0x20000100   Data           2  sysvar.o(.data)
    Check_the_balance                        0x20000102   Data           1  sysvar.o(.data)
    refund_the_balance                       0x20000103   Data           1  sysvar.o(.data)
    keyidx                                   0x20000108   Data           1  keyfun.o(.data)
    menu_keyidx                              0x20000109   Data           1  keyfun.o(.data)
    menu_keyidx_MAX                          0x2000010a   Data           1  keyfun.o(.data)
    keymoneybuff                             0x2000010b   Data           4  keyfun.o(.data)
    keymoney32buff                           0x20000110   Data           4  keyfun.o(.data)
    u32_monetbuf                             0x20000114   Data           4  keyfun.o(.data)
    comidx                                   0x2000011c   Data           4  comcmd.o(.data)
    endcount                                 0x20000120   Data           1  comcmd.o(.data)
    endcount_4g                              0x20000121   Data           1  comcmd.o(.data)
    Data_length                              0x20000124   Data           4  comcmd.o(.data)
    VERSION_SIZE                             0x20000128   Data           1  comcmd.o(.data)
    SOFT_VERSION                             0x20000129   Data          11  comcmd.o(.data)
    TYPE_SIZE                                0x20000134   Data           1  comcmd.o(.data)
    MACH_TYPE                                0x20000135   Data          12  comcmd.o(.data)
    COM_ERROR                                0x20000141   Data          13  comcmd.o(.data)
    Return_Codebuf                           0x2000014e   Data          10  comcmd.o(.data)
    Return_Endvalue                          0x20000158   Data           3  comcmd.o(.data)
    Retainbitbuf                             0x2000015b   Data           4  comcmd.o(.data)
    bgroupfull                               0x20000164   Data           4  name.o(.data)
    bfindcard                                0x20000168   Data           4  name.o(.data)
    curgroup                                 0x2000016c   Data           1  name.o(.data)
    groupidx                                 0x20000170   Data           4  name.o(.data)
    groupcount                               0x20000174   Data           4  name.o(.data)
    commidx                                  0x20000178   Data           4  name.o(.data)
    commcount                                0x2000017c   Data           4  name.o(.data)
    addnamebuff                              0x20000180   Data           6  name.o(.data)
    Permission_Periodbuff                    0x20000186   Data           2  name.o(.data)
    idcycle                                  0x2000018c   Data           4  cardprocess.o(.data)
    idcycleflag                              0x20000190   Data           1  cardprocess.o(.data)
    oldID                                    0x20000191   Data           4  cardprocess.o(.data)
    PasswordMask                             0x20000195   Data           6  cardprocess.o(.data)
    curSection                               0x2000019b   Data           1  cardprocess.o(.data)
    cardPW                                   0x2000019c   Data           6  cardprocess.o(.data)
    isAdmin                                  0x200001a4   Data           4  cardprocess.o(.data)
    isICSetting                              0x200001a8   Data           4  cardprocess.o(.data)
    isValidICPW                              0x200001ac   Data           4  cardprocess.o(.data)
    isValidICData                            0x200001b0   Data           4  cardprocess.o(.data)
    blk6                                     0x200001b4   Data           3  cardprocess.o(.data)
    Pay_Carderr_Code                         0x200001b7   Data           1  cardprocess.o(.data)
    Pay_Head_Code                            0x200001b8   Data           1  cardprocess.o(.data)
    Enable_Pay_Card                          0x200001b9   Data           1  cardprocess.o(.data)
    isection                                 0x200001c0   Data           1  default.o(.data)
    password                                 0x200001c1   Data           6  default.o(.data)
    DEF_SYSVAR                               0x200001c7   Data          11  default.o(.data)
    DEF_PASS                                 0x200001d2   Data           8  default.o(.data)
    DEF_EXTVAR                               0x200001da   Data          11  default.o(.data)
    DEF_PROGRAMM                             0x200001e5   Data           6  default.o(.data)
    recordcount                              0x200001f0   Data           4  record.o(.data)
    rdtemporary_count                        0x200001f4   Data           1  record.o(.data)
    rdrealtime_up_count                      0x200001f8   Data           4  record.o(.data)
    stopdate_addr                            0x200001fc   Data           4  record.o(.data)
    temporarycuraddr                         0x20000200   Data           4  record.o(.data)
    uploadflash_cycle                        0x20000204   Data           2  record.o(.data)
    Flow_number                              0x20000208   Data           4  record.o(.data)
    UserBalance                              0x2000020c   Data           4  record.o(.data)
    Consum_Amount                            0x20000210   Data           4  record.o(.data)
    def_Consum_Amount                        0x20000214   Data           4  record.o(.data)
    Actual_Card_number                       0x20000218   Data           4  record.o(.data)
    Err_Card_number                          0x2000021c   Data           4  record.o(.data)
    Operation_Comm_number                    0x20000220   Data           4  record.o(.data)
    maxrecordcount_err                       0x20000224   Data           1  record.o(.data)
    recordcount_err                          0x20000225   Data           1  record.o(.data)
    ALL_NULL                                 0x20000226   Data           4  record.o(.data)
    machno                                   0x20000230   Data           4  mach.o(.data)
    machno_ASCII                             0x20000234   Data           8  mach.o(.data)
    ICcardbuff                               0x20000240   Data           8  cardrw.o(.data)
    ICcardNameASCII                          0x20000248   Data           8  cardrw.o(.data)
    blk1_Time                                0x20000250   Data           4  cardrw.o(.data)
    ICcard_frequencyBUFF                     0x20000254   Data           4  cardrw.o(.data)
    ICcard_frequencybf                       0x20000258   Data           2  cardrw.o(.data)
    blk3buff                                 0x2000025a   Data          16  cardrw.o(.data)
    Time_slot                                0x2000026a   Data          60  cardrw.o(.data)
    Time_slot_1                              0x200002a6   Data          60  cardrw.o(.data)
    TIME_time_slot                           0x200002e4   Data           4  cardrw.o(.data)
    Current_time_value                       0x200002e8   Data           1  cardrw.o(.data)
    Time_interval_flag                       0x200002ec   Data           4  cardrw.o(.data)
    back_bfindcard                           0x200002f8   Data           4  blackname.o(.data)
    back_curgroup                            0x200002fc   Data           1  blackname.o(.data)
    back_groupidx                            0x20000300   Data           4  blackname.o(.data)
    back_groupcount                          0x20000304   Data           4  blackname.o(.data)
    back_commidx                             0x20000308   Data           4  blackname.o(.data)
    back_commcount                           0x2000030c   Data           4  blackname.o(.data)
    btimeseg                                 0x20000314   Data           4  interval.o(.data)
    itimeseg                                 0x20000318   Data           4  interval.o(.data)
    bHoliday                                 0x2000031c   Data           4  interval.o(.data)
    bChannel                                 0x20000320   Data           4  interval.o(.data)
    bHolitimeseg                             0x20000324   Data           4  interval.o(.data)
    Passage_Enablebuff                       0x20000328   Data           6  interval.o(.data)
    Passage_EnableVerbuff                    0x2000032e   Data           6  interval.o(.data)
    redata_4g                                0x20000338   Data           4  ec20fun.o(.data)
    QR_u8RxIndexW                            0x20000340   Data           2  qr_code.o(.data)
    USART3_RX_CRLF                           0x20000342   Data           1  qr_code.o(.data)
    QR_Readtohex                             0x20000343   Data           8  qr_code.o(.data)
    QRread_styp                              0x2000034b   Data           1  qr_code.o(.data)
    oldQRID                                  0x2000034c   Data           4  qr_code.o(.data)
    Asynchronous_QR_falg                     0x20000350   Data           1  qr_code.o(.data)
    redata_QR                                0x20000354   Data           4  qr_code.o(.data)
    delayTime                                0x2000035c   Data           4  speak.o(.data)
    kt_beat_info                             0x20000364   Data           8  heartbeat.o(.data)
    Show_moneybuf                            0x20000370   Data          20  lcd12864_config.o(.data)
    Display_Time_outcount                    0x20000384   Data           4  lcd12864_config.o(.data)
    UP_UserBalance                           0x2000038c   Data           4  upload.o(.data)
    UP_Consum_Amount                         0x20000390   Data           4  upload.o(.data)
    UP_defNOnetBalance                       0x20000394   Data           4  upload.o(.data)
    UP_defNOretBalance                       0x20000398   Data           4  upload.o(.data)
    UP_defNOcardBalance                      0x2000039c   Data           4  upload.o(.data)
    updatareturnfalg                         0x200003a0   Data           1  upload.o(.data)
    upOverTimeCnt                            0x200003a2   Data           2  upload.o(.data)
    Card_Markok                              0x200003a4   Data           1  upload.o(.data)
    Local_Check_Card_falg                    0x200003a5   Data           1  upload.o(.data)
    Offline_Online_falg                      0x200003a6   Data           1  upload.o(.data)
    Machine_category                         0x200003b4   Data           2  consum_config.o(.data)
    Consum_TimerBit                          0x200003b6   Data           2  consum_config.o(.data)
    Consum_Allmoney                          0x200003b8   Data           8  consum_config.o(.data)
    Sub_Maximum_Limitbuf                     0x200003c0   Data           5  consum_config.o(.data)
    RefundMoneybuf                           0x200003c5   Data           4  consum_config.o(.data)
    RefundICcardbuf                          0x200003c9   Data           4  consum_config.o(.data)
    iapcnt                                   0x200003d4   Data           2  iap_updata.o(.data)
    iapaddr                                  0x200003d8   Data           4  iap_updata.o(.data)
    iappackcnt                               0x200003dc   Data           2  iap_updata.o(.data)
    iapreceivepackcnt                        0x200003de   Data           2  iap_updata.o(.data)
    iapallcnt                                0x200003e0   Data           4  iap_updata.o(.data)
    random_seed                              0x200003e4   Data           4  iap_updata.o(.data)
    func_index                               0x200003ec   Data           1  menu.o(.data)
    Menu_mode                                0x200003ed   Data           1  menu.o(.data)
    Menu_password_falg                       0x200003ee   Data           1  menu.o(.data)
    keytmp                                   0x200003ef   Data           6  menu.o(.data)
    keyouttime                               0x200003f5   Data           2  menu.o(.data)
    machnobuf                                0x200003f7   Data           6  menu.o(.data)
    DISPLAY_CHAR1                            0x20000400   Data          56  menu.o(.data)
    guicurrent_operation_index               0x20000438   Data           4  menu.o(.data)
    right_wrong_index                        0x2000043c   Data           4  menu.o(.data)
    table                                    0x20000440   Data        1848  menu.o(.data)
    right_wrongbuff                          0x20000b78   Data         512  menu.o(.data)
    Mmenu_NUM                                0x20000d7c   Data           1  menufun.o(.data)
    Mmenu_Shou_Mode                          0x20000d7d   Data           1  menufun.o(.data)
    Smenu_Shou_NUM                           0x20000d7e   Data           1  menufun.o(.data)
    Shou_Selection_box                       0x20000d7f   Data           1  menufun.o(.data)
    Menu_Fun_NUM                             0x20000d80   Data           1  menufun.o(.data)
    SmenuUse                                 0x20000d81   Data           6  menufun.o(.data)
    SmenuComm                                0x20000d87   Data           6  menufun.o(.data)
    SmenuSys                                 0x20000d8d   Data           6  menufun.o(.data)
    SmenuData                                0x20000d93   Data           6  menufun.o(.data)
    SmenuConsume                             0x20000d99   Data           6  menufun.o(.data)
    SmenuAccess                              0x20000d9f   Data           6  menufun.o(.data)
    SmenuDrive                               0x20000da5   Data           6  menufun.o(.data)
    SmenuAuto                                0x20000dab   Data           6  menufun.o(.data)
    SmenuSysInfo                             0x20000db1   Data           6  menufun.o(.data)
    MenuMainBuf                              0x20000db7   Data         240  menufun.o(.data)
    MenuUsebuf                               0x20000ea7   Data         240  menufun.o(.data)
    MenuCommbuf                              0x20000f97   Data         360  menufun.o(.data)
    MenuSysbuf                               0x200010ff   Data         240  menufun.o(.data)
    MenuDatabuf                              0x200011ef   Data         240  menufun.o(.data)
    MenuConsumebuf                           0x200012df   Data         240  menufun.o(.data)
    MenuAccessbuf                            0x200013cf   Data         240  menufun.o(.data)
    MenuDrivebuf                             0x200014bf   Data         240  menufun.o(.data)
    MenuAutobuf                              0x200015af   Data         240  menufun.o(.data)
    MenuSysInfobuf                           0x2000169f   Data         240  menufun.o(.data)
    Gateway_IP                               0x2000178f   Data           4  w5500.o(.data)
    Sub_Mask                                 0x20001793   Data           4  w5500.o(.data)
    Phy_Addr                                 0x20001797   Data           6  w5500.o(.data)
    IP_Addr                                  0x2000179d   Data           4  w5500.o(.data)
    S0_Port                                  0x200017a1   Data           2  w5500.o(.data)
    S0_DIP                                   0x200017a3   Data           4  w5500.o(.data)
    S0_DPort                                 0x200017a7   Data           2  w5500.o(.data)
    S1_Port                                  0x200017a9   Data           2  w5500.o(.data)
    S1_DIP                                   0x200017ab   Data           4  w5500.o(.data)
    S1_DPort                                 0x200017af   Data           2  w5500.o(.data)
    UDP_DIPR                                 0x200017b1   Data           4  w5500.o(.data)
    UDP_DPORT                                0x200017b5   Data           2  w5500.o(.data)
    S0_Mode                                  0x200017b7   Data           1  w5500.o(.data)
    S1_Mode                                  0x200017b8   Data           1  w5500.o(.data)
    S2_Mode                                  0x200017b9   Data           1  w5500.o(.data)
    S0_State                                 0x200017ba   Data           1  w5500.o(.data)
    S1_State                                 0x200017bb   Data           1  w5500.o(.data)
    S2_State                                 0x200017bc   Data           1  w5500.o(.data)
    S0_Data                                  0x200017bd   Data           1  w5500.o(.data)
    S1_Data                                  0x200017be   Data           1  w5500.o(.data)
    S2_Data                                  0x200017bf   Data           1  w5500.o(.data)
    W5500_Interrupt                          0x200017c0   Data           1  w5500.o(.data)
    Timer2_Counter                           0x200017c8   Data           4  w5500_config.o(.data)
    W5500_Send_Delay_Counter                 0x200017cc   Data           4  w5500_config.o(.data)
    num_lcd                                  0x200017d4   Data          15  lcd_config.o(.data)
    crclow                                   0x200017e3   Data           1  crc.o(.data)
    crchigh                                  0x200017e4   Data           1  crc.o(.data)
    jump2app                                 0x200017e8   Data           4  iap.o(.data)
    SPI_FLASH_BUF                            0x200017ec   Data        4096  w25qxx.o(.bss)
    SPI_InitStructure                        0x200027ec   Data          18  spi.o(.bss)
    wg1cardno                                0x200027fe   Data          34  wg1.o(.bss)
    wg2cardno                                0x20002820   Data          34  wg2.o(.bss)
    RxDataBuff                               0x20002842   Data        2048  ec20.o(.bss)
    EC20GPSBUF                               0x20003042   Data         500  ec20.o(.bss)
    gl_imei                                  0x20003236   Data          20  ec20.o(.bss)
    gl_imsi                                  0x2000324a   Data          20  ec20.o(.bss)
    STMFLASH_BUF                             0x2000325e   Data        2048  stmflash.o(.bss)
    sysvar                                   0x20003a5e   Data          11  sysvar.o(.bss)
    extvar                                   0x20003a69   Data          11  sysvar.o(.bss)
    keybuff                                  0x20003a74   Data          20  keyfun.o(.bss)
    menu_keybuff                             0x20003a88   Data          50  keyfun.o(.bss)
    keymoneyCentsbuff                        0x20003aba   Data          10  keyfun.o(.bss)
    keymoneyplusbuff                         0x20003ac4   Data          10  keyfun.o(.bss)
    key_status_info                          0x20003ace   Data          16  keyfun.o(.bss)
    combuff                                  0x20003ade   Data        2048  comcmd.o(.bss)
    communication_data                       0x200042de   Data        2048  comcmd.o(.bss)
    blk0                                     0x20004ade   Data          16  cardprocess.o(.bss)
    blk1                                     0x20004aee   Data          16  cardprocess.o(.bss)
    blk2                                     0x20004afe   Data          16  cardprocess.o(.bss)
    blk3                                     0x20004b0e   Data          16  cardprocess.o(.bss)
    recorddata                               0x20004b1e   Data          30  record.o(.bss)
    temporarydata                            0x20004b3c   Data         300  record.o(.bss)
    def_dataZero                             0x20004c68   Data          12  record.o(.bss)
    Permission_Period                        0x20004c74   Data          32  interval.o(.bss)
    Passage_Timebuff                         0x20004c94   Data          32  interval.o(.bss)
    Holiday_Vacationsbuff                    0x20004cb4   Data          40  interval.o(.bss)
    ec20_device_info                         0x20004cdc   Data           9  ec20fun.o(.bss)
    ec20_remoteipbuf                         0x20004ce5   Data          18  ec20fun.o(.bss)
    QR_RxDataBuff                            0x20004cf7   Data          50  qr_code.o(.bss)
    QR_ReadDatabuf                           0x20004d29   Data          20  qr_code.o(.bss)
    LCDtimebuf                               0x20004d3d   Data          16  lcd12864_config.o(.bss)
    Server_Returndata                        0x20004d4d   Data          30  upload.o(.bss)
    Fixed_consum_Moneybuf                    0x20004d6b   Data          16  consum_config.o(.bss)
    Fixed_consum_Timerbuf                    0x20004d7b   Data          32  consum_config.o(.bss)
    Carte_consum_Moneybuf                    0x20004d9b   Data          18  consum_config.o(.bss)
    Receiapbuf                               0x20004db0   Data        1024  iap_updata.o(.bss)
    S0_Rx_Buffer                             0x200051b0   Data        2048  w5500.o(.bss)
    S0_Tx_Buffer                             0x200059b0   Data        2048  w5500.o(.bss)
    S1_Rx_Buffer                             0x200061b0   Data        2048  w5500.o(.bss)
    S1_Tx_Buffer                             0x200069b0   Data        2048  w5500.o(.bss)
    S2_Rx_Buffer                             0x200071b0   Data         100  w5500.o(.bss)
    S2_Tx_Buffer                             0x20007214   Data         100  w5500.o(.bss)
    TcpClient_databuff                       0x20007278   Data        2048  rj45cmd.o(.bss)
    TcpServer_databuff                       0x20007a78   Data        2048  rj45cmd.o(.bss)
    UDPClient_databuff                       0x20008278   Data          50  rj45cmd.o(.bss)
    MenuShowBuf                              0x200082aa   Data         280  lcd_config.o(.bss)
    iapbuf                                   0x200083c2   Data        2048  iap.o(.bss)
    __libspace_start                         0x20008bc4   Data          96  libspace.o(.bss)
    __temporary_stack_top$libspace           0x20008c24   Data           0  libspace.o(.bss)



==============================================================================

Memory Map of the image

  Image Entry point : 0x08006131

  Load Region LR_IROM1 (Base: 0x08006000, Size: 0x000137d4, Max: 0x0001a000, ABSOLUTE, COMPRESSED[0x00012574])

    Execution Region ER_IROM1 (Base: 0x08006000, Size: 0x00011fe8, Max: 0x0001a000, ABSOLUTE)

    Base Addr    Size         Type   Attr      Idx    E Section Name        Object

    0x08006000   0x00000130   Data   RO          760    RESET               startup_stm32f10x_hd.o
    0x08006130   0x00000008   Code   RO         1677  * !!!main             c_w.l(__main.o)
    0x08006138   0x00000034   Code   RO         1846    !!!scatter          c_w.l(__scatter.o)
    0x0800616c   0x0000005a   Code   RO         1844    !!dczerorl2         c_w.l(__dczerorl2.o)
    0x080061c6   0x00000002   PAD
    0x080061c8   0x0000001c   Code   RO         1848    !!handler_zi        c_w.l(__scatter_zi.o)
    0x080061e4   0x00000002   Code   RO         1721    .ARM.Collect$$libinit$$00000000  c_w.l(libinit.o)
    0x080061e6   0x00000000   Code   RO         1723    .ARM.Collect$$libinit$$00000002  c_w.l(libinit2.o)
    0x080061e6   0x00000000   Code   RO         1725    .ARM.Collect$$libinit$$00000004  c_w.l(libinit2.o)
    0x080061e6   0x00000000   Code   RO         1728    .ARM.Collect$$libinit$$0000000A  c_w.l(libinit2.o)
    0x080061e6   0x00000000   Code   RO         1730    .ARM.Collect$$libinit$$0000000C  c_w.l(libinit2.o)
    0x080061e6   0x00000000   Code   RO         1732    .ARM.Collect$$libinit$$0000000E  c_w.l(libinit2.o)
    0x080061e6   0x00000006   Code   RO         1733    .ARM.Collect$$libinit$$0000000F  c_w.l(libinit2.o)
    0x080061ec   0x00000000   Code   RO         1735    .ARM.Collect$$libinit$$00000011  c_w.l(libinit2.o)
    0x080061ec   0x0000000c   Code   RO         1736    .ARM.Collect$$libinit$$00000012  c_w.l(libinit2.o)
    0x080061f8   0x00000000   Code   RO         1737    .ARM.Collect$$libinit$$00000013  c_w.l(libinit2.o)
    0x080061f8   0x00000000   Code   RO         1739    .ARM.Collect$$libinit$$00000015  c_w.l(libinit2.o)
    0x080061f8   0x00000000   Code   RO         1741    .ARM.Collect$$libinit$$00000017  c_w.l(libinit2.o)
    0x080061f8   0x00000000   Code   RO         1743    .ARM.Collect$$libinit$$00000019  c_w.l(libinit2.o)
    0x080061f8   0x00000000   Code   RO         1745    .ARM.Collect$$libinit$$0000001B  c_w.l(libinit2.o)
    0x080061f8   0x00000000   Code   RO         1747    .ARM.Collect$$libinit$$0000001D  c_w.l(libinit2.o)
    0x080061f8   0x00000000   Code   RO         1749    .ARM.Collect$$libinit$$0000001F  c_w.l(libinit2.o)
    0x080061f8   0x00000000   Code   RO         1751    .ARM.Collect$$libinit$$00000021  c_w.l(libinit2.o)
    0x080061f8   0x00000000   Code   RO         1753    .ARM.Collect$$libinit$$00000023  c_w.l(libinit2.o)
    0x080061f8   0x00000000   Code   RO         1755    .ARM.Collect$$libinit$$00000025  c_w.l(libinit2.o)
    0x080061f8   0x00000000   Code   RO         1759    .ARM.Collect$$libinit$$0000002C  c_w.l(libinit2.o)
    0x080061f8   0x00000000   Code   RO         1761    .ARM.Collect$$libinit$$0000002E  c_w.l(libinit2.o)
    0x080061f8   0x00000000   Code   RO         1763    .ARM.Collect$$libinit$$00000030  c_w.l(libinit2.o)
    0x080061f8   0x00000000   Code   RO         1765    .ARM.Collect$$libinit$$00000032  c_w.l(libinit2.o)
    0x080061f8   0x00000002   Code   RO         1766    .ARM.Collect$$libinit$$00000033  c_w.l(libinit2.o)
    0x080061fa   0x00000002   Code   RO         1794    .ARM.Collect$$libshutdown$$00000000  c_w.l(libshutdown.o)
    0x080061fc   0x00000000   Code   RO         1803    .ARM.Collect$$libshutdown$$00000002  c_w.l(libshutdown2.o)
    0x080061fc   0x00000000   Code   RO         1805    .ARM.Collect$$libshutdown$$00000004  c_w.l(libshutdown2.o)
    0x080061fc   0x00000000   Code   RO         1808    .ARM.Collect$$libshutdown$$00000007  c_w.l(libshutdown2.o)
    0x080061fc   0x00000000   Code   RO         1811    .ARM.Collect$$libshutdown$$0000000A  c_w.l(libshutdown2.o)
    0x080061fc   0x00000000   Code   RO         1813    .ARM.Collect$$libshutdown$$0000000C  c_w.l(libshutdown2.o)
    0x080061fc   0x00000000   Code   RO         1816    .ARM.Collect$$libshutdown$$0000000F  c_w.l(libshutdown2.o)
    0x080061fc   0x00000002   Code   RO         1817    .ARM.Collect$$libshutdown$$00000010  c_w.l(libshutdown2.o)
    0x080061fe   0x00000000   Code   RO         1681    .ARM.Collect$$rtentry$$00000000  c_w.l(__rtentry.o)
    0x080061fe   0x00000000   Code   RO         1685    .ARM.Collect$$rtentry$$00000002  c_w.l(__rtentry2.o)
    0x080061fe   0x00000006   Code   RO         1697    .ARM.Collect$$rtentry$$00000004  c_w.l(__rtentry4.o)
    0x08006204   0x00000000   Code   RO         1687    .ARM.Collect$$rtentry$$00000009  c_w.l(__rtentry2.o)
    0x08006204   0x00000004   Code   RO         1688    .ARM.Collect$$rtentry$$0000000A  c_w.l(__rtentry2.o)
    0x08006208   0x00000000   Code   RO         1690    .ARM.Collect$$rtentry$$0000000C  c_w.l(__rtentry2.o)
    0x08006208   0x00000008   Code   RO         1691    .ARM.Collect$$rtentry$$0000000D  c_w.l(__rtentry2.o)
    0x08006210   0x00000002   Code   RO         1767    .ARM.Collect$$rtexit$$00000000  c_w.l(rtexit.o)
    0x08006212   0x00000000   Code   RO         1774    .ARM.Collect$$rtexit$$00000002  c_w.l(rtexit2.o)
    0x08006212   0x00000004   Code   RO         1775    .ARM.Collect$$rtexit$$00000003  c_w.l(rtexit2.o)
    0x08006216   0x00000006   Code   RO         1776    .ARM.Collect$$rtexit$$00000004  c_w.l(rtexit2.o)
    0x0800621c   0x00000006   Code   RO          709    .emb_text           sys.o
    0x08006222   0x00000002   PAD
    0x08006224   0x00000278   Code   RO            1    .text               main.o
    0x0800649c   0x0000001a   Code   RO          329    .text               stm32f10x_it.o
    0x080064b6   0x00000002   PAD
    0x080064b8   0x000001e0   Code   RO          370    .text               system_stm32f10x.o
    0x08006698   0x00000034   Code   RO          391    .text               led.o
    0x080066cc   0x00000034   Code   RO          422    .text               beep.o
    0x08006700   0x00000264   Code   RO          434    .text               timer.o
    0x08006964   0x0000026c   Code   RO          455    .text               myiic.o
    0x08006bd0   0x00000058   Code   RO          467    .text               relay.o
    0x08006c28   0x000003d4   Code   RO          479    .text               w25qxx.o
    0x08006ffc   0x000000e0   Code   RO          498    .text               spi.o
    0x080070dc   0x0000002c   Code   RO          513    .text               wdg.o
    0x08007108   0x00000034   Code   RO          537    .text               sysrest.o
    0x0800713c   0x000001de   Code   RO          549    .text               24cxx.o
    0x0800731a   0x00000002   PAD
    0x0800731c   0x00000098   Code   RO          563    .text               rs485.o
    0x080073b4   0x00000220   Code   RO          577    .text               wg1.o
    0x080075d4   0x00000220   Code   RO          599    .text               wg2.o
    0x080077f4   0x000001de   Code   RO          618    .text               24cxx_2.o
    0x080079d2   0x00000002   PAD
    0x080079d4   0x0000026c   Code   RO          630    .text               myiic_2.o
    0x08007c40   0x0000096c   Code   RO          642    .text               ec20.o
    0x080085ac   0x0000008c   Code   RO          665    .text               volume.o
    0x08008638   0x000001ec   Code   RO          680    .text               stmflash.o
    0x08008824   0x000000d4   Code   RO          695    .text               delay.o
    0x080088f8   0x000003a0   Code   RO          726    .text               usart.o
    0x08008c98   0x00000040   Code   RO          761    .text               startup_stm32f10x_hd.o
    0x08008cd8   0x000000dc   Code   RO          765    .text               misc.o
    0x08008db4   0x0000035c   Code   RO          777    .text               stm32f10x_gpio.o
    0x08009110   0x000003a4   Code   RO          789    .text               stm32f10x_rcc.o
    0x080094b4   0x00000408   Code   RO          803    .text               stm32f10x_usart.o
    0x080098bc   0x00000e1a   Code   RO          815    .text               stm32f10x_tim.o
    0x0800a6d6   0x00000002   PAD
    0x0800a6d8   0x0000011c   Code   RO          875    .text               stm32f10x_exti.o
    0x0800a7f4   0x000005bc   Code   RO          887    .text               stm32f10x_flash.o
    0x0800adb0   0x00000040   Code   RO          899    .text               stm32f10x_iwdg.o
    0x0800adf0   0x0000030c   Code   RO          935    .text               stm32f10x_spi.o
    0x0800b0fc   0x00000130   Code   RO          959    .text               rc522_config.o
    0x0800b22c   0x000006de   Code   RO          973    .text               rc522_function.o
    0x0800b90a   0x00000002   PAD
    0x0800b90c   0x0000041c   Code   RO          985    .text               ds1302.o
    0x0800bd28   0x000002c0   Code   RO         1003    .text               sysvar.o
    0x0800bfe8   0x000003e4   Code   RO         1027    .text               keyfun.o
    0x0800c3cc   0x00000410   Code   RO         1054    .text               syscomm.o
    0x0800c7dc   0x00001d4c   Code   RO         1072    .text               comcmd.o
    0x0800e528   0x000003f4   Code   RO         1096    .text               name.o
    0x0800e91c   0x0000059c   Code   RO         1118    .text               cardprocess.o
    0x0800eeb8   0x00000088   Code   RO         1137    .text               pass.o
    0x0800ef40   0x000000b0   Code   RO         1151    .text               default.o
    0x0800eff0   0x000006d0   Code   RO         1169    .text               record.o
    0x0800f6c0   0x0000004c   Code   RO         1192    .text               mach.o
    0x0800f70c   0x00000278   Code   RO         1230    .text               cardrw.o
    0x0800f984   0x000003ac   Code   RO         1248    .text               blackname.o
    0x0800fd30   0x00000254   Code   RO         1266    .text               interval.o
    0x0800ff84   0x000001b0   Code   RO         1286    .text               ec20fun.o
    0x08010134   0x00000250   Code   RO         1305    .text               qr_code.o
    0x08010384   0x00000180   Code   RO         1324    .text               speak.o
    0x08010504   0x0000009c   Code   RO         1340    .text               heartbeat.o
    0x080105a0   0x000002f8   Code   RO         1358    .text               lcd12864.o
    0x08010898   0x0000083c   Code   RO         1372    .text               lcd12864_config.o
    0x080110d4   0x00000268   Code   RO         1393    .text               upload.o
    0x0801133c   0x0000033c   Code   RO         1412    .text               tm1650.o
    0x08011678   0x00000148   Code   RO         1441    .text               consum_config.o
    0x080117c0   0x00000288   Code   RO         1461    .text               iap_updata.o
    0x08011a48   0x00001378   Code   RO         1485    .text               menu.o
    0x08012dc0   0x00000238   Code   RO         1510    .text               menufun.o
    0x08012ff8   0x00000b58   Code   RO         1528    .text               w5500.o
    0x08013b50   0x0000049c   Code   RO         1547    .text               w5500_config.o
    0x08013fec   0x0000038c   Code   RO         1562    .text               rj45cmd.o
    0x08014378   0x000005e6   Code   RO         1582    .text               lcd_dis.o
    0x0801495e   0x00000002   PAD
    0x08014960   0x00002d6c   Code   RO         1600    .text               lcd_config.o
    0x080176cc   0x000000ac   Code   RO         1624    .text               crc.o
    0x08017778   0x00000094   Code   RO         1643    .text               iap.o
    0x0801780c   0x00000002   Code   RO         1661    .text               c_w.l(use_no_semi_2.o)
    0x0801780e   0x0000001e   Code   RO         1663    .text               c_w.l(toupper.o)
    0x0801782c   0x00000024   Code   RO         1665    .text               c_w.l(strstr.o)
    0x08017850   0x0000008a   Code   RO         1667    .text               c_w.l(rt_memcpy_v6.o)
    0x080178da   0x00000064   Code   RO         1669    .text               c_w.l(rt_memcpy_w.o)
    0x0801793e   0x00000044   Code   RO         1671    .text               c_w.l(rt_memclr.o)
    0x08017982   0x0000004e   Code   RO         1673    .text               c_w.l(rt_memclr_w.o)
    0x080179d0   0x00000006   Code   RO         1675    .text               c_w.l(heapauxi.o)
    0x080179d6   0x00000002   Code   RO         1679    .text               c_w.l(use_no_semi.o)
    0x080179d8   0x00000010   Code   RO         1682    .text               c_w.l(rt_ctype_table.o)
    0x080179e8   0x00000008   Code   RO         1702    .text               c_w.l(rt_locale_intlibspace.o)
    0x080179f0   0x00000008   Code   RO         1707    .text               c_w.l(libspace.o)
    0x080179f8   0x0000004a   Code   RO         1710    .text               c_w.l(sys_stackheap_outer.o)
    0x08017a42   0x00000012   Code   RO         1712    .text               c_w.l(exit.o)
    0x08017a54   0x00000080   Code   RO         1714    .text               c_w.l(strcmpv7m.o)
    0x08017ad4   0x0000002c   Code   RO         1705    locale$$code        c_w.l(lc_ctype_c.o)
    0x08017b00   0x000000aa   Data   RO          644    .constdata          ec20.o
    0x08017baa   0x00000002   PAD
    0x08017bac   0x0000000a   Data   RO          666    .constdata          volume.o
    0x08017bb6   0x00000002   PAD
    0x08017bb8   0x0000000e   Data   RO         1074    .constdata          comcmd.o
    0x08017bc6   0x00000002   PAD
    0x08017bc8   0x00000004   Data   RO         1325    .constdata          speak.o
    0x08017bcc   0x0000004a   Data   RO         1374    .constdata          lcd12864_config.o
    0x08017c16   0x00000002   PAD
    0x08017c18   0x00000004   Data   RO         1463    .constdata          iap_updata.o
    0x08017c1c   0x00000004   Data   RO         1564    .constdata          rj45cmd.o
    0x08017c20   0x00000098   Data   RO         1602    .constdata          lcd_config.o
    0x08017cb8   0x00000200   Data   RO         1625    .constdata          crc.o
    0x08017eb8   0x00000020   Data   RO         1842    Region$$Table       anon$$obj.o
    0x08017ed8   0x00000110   Data   RO         1704    locale$$data        c_w.l(lc_ctype_c.o)


    Execution Region RW_IRAM1 (Base: 0x20000000, Size: 0x00009228, Max: 0x0000c000, ABSOLUTE, COMPRESSED[0x0000058c])

    Base Addr    Size         Type   Attr      Idx    E Section Name        Object

    0x20000000   0x00000014   Data   RW          371    .data               system_stm32f10x.o
    0x20000014   0x00000006   Data   RW          435    .data               timer.o
    0x2000001a   0x00000002   PAD
    0x2000001c   0x0000000c   Data   RW          579    .data               wg1.o
    0x20000028   0x0000000c   Data   RW          601    .data               wg2.o
    0x20000034   0x00000042   Data   RW          645    .data               ec20.o
    0x20000076   0x00000004   Data   RW          696    .data               delay.o
    0x2000007a   0x00000002   PAD
    0x2000007c   0x0000000d   Data   RW          727    .data               usart.o
    0x20000089   0x00000014   Data   RW          790    .data               stm32f10x_rcc.o
    0x2000009d   0x00000003   PAD
    0x200000a0   0x00000014   Data   RW          986    .data               ds1302.o
    0x200000b4   0x00000050   Data   RW         1005    .data               sysvar.o
    0x20000104   0x00000014   Data   RW         1029    .data               keyfun.o
    0x20000118   0x00000047   Data   RW         1075    .data               comcmd.o
    0x2000015f   0x00000001   PAD
    0x20000160   0x00000028   Data   RW         1097    .data               name.o
    0x20000188   0x00000032   Data   RW         1120    .data               cardprocess.o
    0x200001ba   0x00000002   PAD
    0x200001bc   0x0000002f   Data   RW         1152    .data               default.o
    0x200001eb   0x00000001   PAD
    0x200001ec   0x0000003e   Data   RW         1171    .data               record.o
    0x2000022a   0x00000002   PAD
    0x2000022c   0x00000010   Data   RW         1193    .data               mach.o
    0x2000023c   0x000000b4   Data   RW         1231    .data               cardrw.o
    0x200002f0   0x00000020   Data   RW         1249    .data               blackname.o
    0x20000310   0x00000024   Data   RW         1268    .data               interval.o
    0x20000334   0x00000008   Data   RW         1288    .data               ec20fun.o
    0x2000033c   0x0000001c   Data   RW         1307    .data               qr_code.o
    0x20000358   0x00000008   Data   RW         1326    .data               speak.o
    0x20000360   0x0000000c   Data   RW         1341    .data               heartbeat.o
    0x2000036c   0x0000001c   Data   RW         1375    .data               lcd12864_config.o
    0x20000388   0x0000001f   Data   RW         1395    .data               upload.o
    0x200003a7   0x00000001   PAD
    0x200003a8   0x00000006   Data   RW         1413    .data               tm1650.o
    0x200003ae   0x00000002   PAD
    0x200003b0   0x0000001d   Data   RW         1443    .data               consum_config.o
    0x200003cd   0x00000003   PAD
    0x200003d0   0x00000018   Data   RW         1464    .data               iap_updata.o
    0x200003e8   0x00000990   Data   RW         1486    .data               menu.o
    0x20000d78   0x00000a17   Data   RW         1511    .data               menufun.o
    0x2000178f   0x00000032   Data   RW         1530    .data               w5500.o
    0x200017c1   0x00000003   PAD
    0x200017c4   0x0000000c   Data   RW         1548    .data               w5500_config.o
    0x200017d0   0x00000013   Data   RW         1603    .data               lcd_config.o
    0x200017e3   0x00000002   Data   RW         1626    .data               crc.o
    0x200017e5   0x00000003   PAD
    0x200017e8   0x00000004   Data   RW         1645    .data               iap.o
    0x200017ec   0x00001000   Zero   RW          480    .bss                w25qxx.o
    0x200027ec   0x00000012   Zero   RW          499    .bss                spi.o
    0x200027fe   0x00000022   Zero   RW          578    .bss                wg1.o
    0x20002820   0x00000022   Zero   RW          600    .bss                wg2.o
    0x20002842   0x00000a1c   Zero   RW          643    .bss                ec20.o
    0x2000325e   0x00000800   Zero   RW          681    .bss                stmflash.o
    0x20003a5e   0x00000016   Zero   RW         1004    .bss                sysvar.o
    0x20003a74   0x0000006a   Zero   RW         1028    .bss                keyfun.o
    0x20003ade   0x00001000   Zero   RW         1073    .bss                comcmd.o
    0x20004ade   0x00000040   Zero   RW         1119    .bss                cardprocess.o
    0x20004b1e   0x00000156   Zero   RW         1170    .bss                record.o
    0x20004c74   0x00000068   Zero   RW         1267    .bss                interval.o
    0x20004cdc   0x0000001b   Zero   RW         1287    .bss                ec20fun.o
    0x20004cf7   0x00000046   Zero   RW         1306    .bss                qr_code.o
    0x20004d3d   0x00000010   Zero   RW         1373    .bss                lcd12864_config.o
    0x20004d4d   0x0000001e   Zero   RW         1394    .bss                upload.o
    0x20004d6b   0x00000042   Zero   RW         1442    .bss                consum_config.o
    0x20004dad   0x00000003   PAD
    0x20004db0   0x00000400   Zero   RW         1462    .bss                iap_updata.o
    0x200051b0   0x000020c8   Zero   RW         1529    .bss                w5500.o
    0x20007278   0x00001032   Zero   RW         1563    .bss                rj45cmd.o
    0x200082aa   0x00000118   Zero   RW         1601    .bss                lcd_config.o
    0x200083c2   0x00000800   Zero   RW         1644    .bss                iap.o
    0x20008bc2   0x00000002   PAD
    0x20008bc4   0x00000060   Zero   RW         1708    .bss                c_w.l(libspace.o)
    0x20008c24   0x00000004   PAD
    0x20008c28   0x00000200   Zero   RW          759    HEAP                startup_stm32f10x_hd.o
    0x20008e28   0x00000400   Zero   RW          758    STACK               startup_stm32f10x_hd.o


==============================================================================

Image component sizes


      Code (inc. data)   RO Data    RW Data    ZI Data      Debug   Object Name

       478          0          0          0          0       3355   24cxx.o
       478          0          0          0          0       3391   24cxx_2.o
        52          6          0          0          0        508   beep.o
       940         34          0         32          0       4389   blackname.o
      1436        226          0         50         64       3953   cardprocess.o
       632         74          0        180          0       3346   cardrw.o
      7500        646         14         71       4096      19880   comcmd.o
       328         34          0         29         66       3492   consum_config.o
       172         12        512          2          0       1519   crc.o
       176         46          0         47          0       1923   default.o
       212         18          0          4          0       1079   delay.o
      1052         24          0         20          0       3264   ds1302.o
      2412        226        170         66       2588       8928   ec20.o
       432         72          0          8         27       2245   ec20fun.o
       156         38          0         12          0       1487   heartbeat.o
       148         14          0          4       2048       1714   iap.o
       648         78          4         24       1024      18767   iap_updata.o
       596         54          0         36        104       3398   interval.o
       996         74          0         20        106       4115   keyfun.o
       760         16          0          0          0       3565   lcd12864.o
      2108        436         74         28         16       3643   lcd12864_config.o
     11628       2482        152         19        280      10375   lcd_config.o
      1510          6          0          0          0       6358   lcd_dis.o
        52          6          0          0          0        503   led.o
        76          8          0         16          0       1266   mach.o
       632         44          0          0          0     291343   main.o
      4984        364          0       2448          0      11977   menu.o
       568         98          0       2583          0       3059   menufun.o
       220         22          0          0          0       1833   misc.o
       620         14          0          0          0       1900   myiic.o
       620         14          0          0          0       1940   myiic_2.o
      1012         42          0         40          0       4282   name.o
       136          8          0          0          0       1368   pass.o
       592         92          0         28         70       2998   qr_code.o
       304         20          0          0          0       1013   rc522_config.o
      1758         12          0          0          0       7160   rc522_function.o
      1744        232          0         62        342       6178   record.o
        88         10          0          0          0        533   relay.o
       908        106          4          0       4146       3925   rj45cmd.o
       152         14          0          0          0       1353   rs485.o
       384         16          4          8          0       2522   speak.o
       224         12          0          0         18       1333   spi.o
        64         26        304          0       1536        800   startup_stm32f10x_hd.o
       284         10          0          0          0       2291   stm32f10x_exti.o
      1468         34          0          0          0       8242   stm32f10x_flash.o
       860         38          0          0          0       5769   stm32f10x_gpio.o
        26          0          0          0          0       1198   stm32f10x_it.o
        64          6          0          0          0       1297   stm32f10x_iwdg.o
       932         36          0         20          0       8968   stm32f10x_rcc.o
       780         14          0          0          0       6650   stm32f10x_spi.o
      3610         88          0          0          0      22876   stm32f10x_tim.o
      1032         22          0          0          0       8492   stm32f10x_usart.o
       492          8          0          0       2048       3357   stmflash.o
         6          0          0          0          0        372   sys.o
      1040         36          0          0          0       7128   syscomm.o
        52          6          0          0          0        527   sysrest.o
       480         38          0         20          0       1791   system_stm32f10x.o
       704         82          0         80         22       4925   sysvar.o
       612         92          0          6          0       2141   timer.o
       828         54          0          6          0       3457   tm1650.o
       616         86          0         31         30       2029   upload.o
       928         70          0         13          0       4602   usart.o
       140         12         10          0          0       1140   volume.o
       980         16          0          0       4096       5097   w25qxx.o
      2904        120          0         50       8392      12347   w5500.o
      1180        122          0         12          0       4514   w5500_config.o
        44          0          0          0          0        682   wdg.o
       544         28          0         12         34       2503   wg1.o
       544         28          0         12         34       2503   wg2.o

    ----------------------------------------------------------------------
     71152       6822       1288       6124      31192     586878   Object Totals
         0          0         32          0          0          0   (incl. Generated)
        14          0          8         25          5          0   (incl. Padding)

    ----------------------------------------------------------------------

      Code (inc. data)   RO Data    RW Data    ZI Data      Debug   Library Member Name

        90          0          0          0          0          0   __dczerorl2.o
         8          0          0          0          0         68   __main.o
         0          0          0          0          0          0   __rtentry.o
        12          0          0          0          0          0   __rtentry2.o
         6          0          0          0          0          0   __rtentry4.o
        52          8          0          0          0          0   __scatter.o
        28          0          0          0          0          0   __scatter_zi.o
        18          0          0          0          0         80   exit.o
         6          0          0          0          0        152   heapauxi.o
        44         10        272          0          0         76   lc_ctype_c.o
         2          0          0          0          0          0   libinit.o
        20          0          0          0          0          0   libinit2.o
         2          0          0          0          0          0   libshutdown.o
         2          0          0          0          0          0   libshutdown2.o
         8          4          0          0         96         68   libspace.o
        16          4          0          0          0         76   rt_ctype_table.o
         8          4          0          0          0         68   rt_locale_intlibspace.o
        68          0          0          0          0         68   rt_memclr.o
        78          0          0          0          0         80   rt_memclr_w.o
       138          0          0          0          0         68   rt_memcpy_v6.o
       100          0          0          0          0         80   rt_memcpy_w.o
         2          0          0          0          0          0   rtexit.o
        10          0          0          0          0          0   rtexit2.o
       128          0          0          0          0         68   strcmpv7m.o
        36          0          0          0          0         80   strstr.o
        74          0          0          0          0         80   sys_stackheap_outer.o
        30          0          0          0          0         76   toupper.o
         2          0          0          0          0         68   use_no_semi.o
         2          0          0          0          0         68   use_no_semi_2.o

    ----------------------------------------------------------------------
       992         30        272          0        100       1324   Library Totals
         2          0          0          0          4          0   (incl. Padding)

    ----------------------------------------------------------------------

      Code (inc. data)   RO Data    RW Data    ZI Data      Debug   Library Name

       990         30        272          0         96       1324   c_w.l

    ----------------------------------------------------------------------
       992         30        272          0        100       1324   Library Totals

    ----------------------------------------------------------------------

==============================================================================


      Code (inc. data)   RO Data    RW Data    ZI Data      Debug   

     72144       6852       1560       6124      31292     581854   Grand Totals
     72144       6852       1560       1420      31292     581854   ELF Image Totals (compressed)
     72144       6852       1560       1420          0          0   ROM Totals

==============================================================================

    Total RO  Size (Code + RO Data)                73704 (  71.98kB)
    Total RW  Size (RW Data + ZI Data)             37416 (  36.54kB)
    Total ROM Size (Code + RO Data + RW Data)      75124 (  73.36kB)

==============================================================================

